
cobj.out：     文件格式 elf32-i386


Disassembly of section .text:

00280000 <bootmain>:
#define red   1
#define green 2
struct boot_info *bootp=(struct boot_info *) ADDR_BOOT;
extern struct MOUSE_DEC glob;
void bootmain(void)
{
  280000:	55                   	push   %ebp
  280001:	89 e5                	mov    %esp,%ebp
  280003:	57                   	push   %edi
  280004:	56                   	push   %esi
  280005:	53                   	push   %ebx
  280006:	81 ec e8 00 00 00    	sub    $0xe8,%esp
	static char font[40];	//sprintf buffer
	char s[40];
	int i=124567;		//sprintf variable i for test
	//char mousepic[256];     //mouse logo buffer
	char keybuf[32], mousebuf[128];
	clear_screen(40);   	//read
  28000c:	6a 28                	push   $0x28
  28000e:	e8 9d 02 00 00       	call   2802b0 <clear_screen>

static __inline void
sti(void)
{

	__asm __volatile("sti");
  280013:	fb                   	sti    

	sti();		//enable cpu interrupt
	fifo8_init(&keyfifo, 32, keybuf);
  280014:	83 c4 0c             	add    $0xc,%esp
  280017:	8d 85 20 ff ff ff    	lea    -0xe0(%ebp),%eax
  28001d:	50                   	push   %eax
  28001e:	6a 20                	push   $0x20
  280020:	68 28 2f 28 00       	push   $0x282f28
  280025:	e8 9a 0b 00 00       	call   280bc4 <fifo8_init>
	fifo8_init(&mousefifo, 128, mousebuf);
  28002a:	83 c4 0c             	add    $0xc,%esp
  28002d:	8d 85 68 ff ff ff    	lea    -0x98(%ebp),%eax
  280033:	50                   	push   %eax
  280034:	68 80 00 00 00       	push   $0x80
  280039:	68 40 2f 28 00       	push   $0x282f40
  28003e:	e8 81 0b 00 00       	call   280bc4 <fifo8_init>
	init_screen((struct boot_info * )bootp);
	init_palette();  //color table from 0 to 15

	sprintf(s, "MEM TEST...");
  280043:	8d 9d 40 ff ff ff    	lea    -0xc0(%ebp),%ebx
	clear_screen(40);   	//read

	sti();		//enable cpu interrupt
	fifo8_init(&keyfifo, 32, keybuf);
	fifo8_init(&mousefifo, 128, mousebuf);
	init_screen((struct boot_info * )bootp);
  280049:	58                   	pop    %eax
  28004a:	ff 35 24 2f 28 00    	pushl  0x282f24
  280050:	e8 a4 04 00 00       	call   2804f9 <init_screen>
	init_palette();  //color table from 0 to 15
  280055:	e8 b6 02 00 00       	call   280310 <init_palette>

	sprintf(s, "MEM TEST...");
  28005a:	5a                   	pop    %edx
  28005b:	59                   	pop    %ecx
  28005c:	68 a0 29 28 00       	push   $0x2829a0
  280061:	53                   	push   %ebx
  280062:	e8 11 06 00 00       	call   280678 <sprintf>
	boxfill8(bootp->vram, bootp->xsize, COL8_008484,  32, 48, 200, 63);
  280067:	83 c4 0c             	add    $0xc,%esp
  28006a:	a1 24 2f 28 00       	mov    0x282f24,%eax
  28006f:	6a 3f                	push   $0x3f
  280071:	68 c8 00 00 00       	push   $0xc8
  280076:	6a 30                	push   $0x30
  280078:	6a 20                	push   $0x20
  28007a:	6a 0e                	push   $0xe
  28007c:	0f bf 50 04          	movswl 0x4(%eax),%edx
  280080:	52                   	push   %edx
  280081:	ff 70 08             	pushl  0x8(%eax)
  280084:	e8 b8 02 00 00       	call   280341 <boxfill8>
	puts8(bootp->vram, bootp->xsize, 32, 48, COL8_FFFFFF, s);
  280089:	83 c4 18             	add    $0x18,%esp
  28008c:	a1 24 2f 28 00       	mov    0x282f24,%eax
  280091:	53                   	push   %ebx
  280092:	6a 07                	push   $0x7
  280094:	6a 30                	push   $0x30
  280096:	6a 20                	push   $0x20
  280098:	0f bf 50 04          	movswl 0x4(%eax),%edx
  28009c:	52                   	push   %edx
  28009d:	ff 70 08             	pushl  0x8(%eax)
  2800a0:	e8 df 06 00 00       	call   280784 <puts8>
	i=memtest(0x01000000, 0xbffffffff)/(1024*1024);
  2800a5:	83 c4 1c             	add    $0x1c,%esp
  2800a8:	6a 0b                	push   $0xb
  2800aa:	6a ff                	push   $0xffffffff
  2800ac:	68 00 00 00 01       	push   $0x1000000
  2800b1:	e8 8a 0d 00 00       	call   280e40 <memtest>
  2800b6:	b9 00 00 10 00       	mov    $0x100000,%ecx
	sprintf(s, "MEM: %dM", i);
  2800bb:	83 c4 0c             	add    $0xc,%esp
	init_palette();  //color table from 0 to 15

	sprintf(s, "MEM TEST...");
	boxfill8(bootp->vram, bootp->xsize, COL8_008484,  32, 48, 200, 63);
	puts8(bootp->vram, bootp->xsize, 32, 48, COL8_FFFFFF, s);
	i=memtest(0x01000000, 0xbffffffff)/(1024*1024);
  2800be:	99                   	cltd   
  2800bf:	f7 f9                	idiv   %ecx
	sprintf(s, "MEM: %dM", i);
  2800c1:	50                   	push   %eax
  2800c2:	68 ac 29 28 00       	push   $0x2829ac
  2800c7:	53                   	push   %ebx
  2800c8:	e8 ab 05 00 00       	call   280678 <sprintf>
	boxfill8(bootp->vram, bootp->xsize, COL8_008484,  32, 48, 200, 63);
  2800cd:	83 c4 0c             	add    $0xc,%esp
  2800d0:	a1 24 2f 28 00       	mov    0x282f24,%eax
  2800d5:	6a 3f                	push   $0x3f
  2800d7:	68 c8 00 00 00       	push   $0xc8
  2800dc:	6a 30                	push   $0x30
  2800de:	6a 20                	push   $0x20
  2800e0:	6a 0e                	push   $0xe
  2800e2:	0f bf 50 04          	movswl 0x4(%eax),%edx
  2800e6:	52                   	push   %edx
  2800e7:	ff 70 08             	pushl  0x8(%eax)
  2800ea:	e8 52 02 00 00       	call   280341 <boxfill8>
	puts8(bootp->vram, bootp->xsize, 32, 48, COL8_FFFFFF, s);
  2800ef:	83 c4 18             	add    $0x18,%esp
  2800f2:	a1 24 2f 28 00       	mov    0x282f24,%eax
  2800f7:	53                   	push   %ebx
  2800f8:	6a 07                	push   $0x7
  2800fa:	6a 30                	push   $0x30
  2800fc:	6a 20                	push   $0x20
  2800fe:	0f bf 50 04          	movswl 0x4(%eax),%edx
  280102:	52                   	push   %edx
  280103:	ff 70 08             	pushl  0x8(%eax)
  280106:	e8 79 06 00 00       	call   280784 <puts8>


	//display mouse logo
	//init_mouse(mousepic,7);//7　means background color:white
	//display_mouse(bootp->vram,bootp->xsize,16,16,60,60,mousepic,16);
	init_gdtidt();
  28010b:	83 c4 20             	add    $0x20,%esp
  28010e:	e8 1b 08 00 00       	call   28092e <init_gdtidt>
	init_pic();//函数中：　irq 1(keyboard)对应设置中断号int0x21,    irq　12(mouse)对应的中断号是int0x2c 要写中断服务程序了。
  280113:	e8 a4 09 00 00       	call   280abc <init_pic>
// out:write a data to a port
static __inline void
outb(int port, uint8_t data)
{
  //data是变量0%0 , port是变量word１%w1
	__asm __volatile("outb %0,%w1" : : "a" (data), "d" (port));
  280118:	ba 21 00 00 00       	mov    $0x21,%edx
  28011d:	b0 f9                	mov    $0xf9,%al
  28011f:	ee                   	out    %al,(%dx)
  280120:	b0 ef                	mov    $0xef,%al
  280122:	b2 a1                	mov    $0xa1,%dl
  280124:	ee                   	out    %al,(%dx)
	int * addr=(int *)(0x0026f800+8*0x21);
	//printdebug(*(addr),0);
	//printdebug(*(addr+1),160);
	int mouse_tot=-1;
	//io_halt();
	init_keyboard();
  280125:	e8 c5 0c 00 00       	call   280def <init_keyboard>
	enable_mouse(bootp);
  28012a:	83 ec 0c             	sub    $0xc,%esp

	//打印出int0x21处的idt值，主要看offset是否与　asm_inthandler21一样（看反汇编，可以看到地址）
	int * addr=(int *)(0x0026f800+8*0x21);
	//printdebug(*(addr),0);
	//printdebug(*(addr+1),160);
	int mouse_tot=-1;
  28012d:	83 cb ff             	or     $0xffffffff,%ebx
	//io_halt();
	init_keyboard();
	enable_mouse(bootp);
  280130:	ff 35 24 2f 28 00    	pushl  0x282f24
  280136:	8d b5 40 ff ff ff    	lea    -0xc0(%ebp),%esi
  28013c:	e8 2f 0b 00 00       	call   280c70 <enable_mouse>
  280141:	83 c4 10             	add    $0x10,%esp

	for (;;) {
		io_cli();
  280144:	fa                   	cli    
		if (fifo8_status(&keyfifo) + fifo8_status(&mousefifo) == 0) {
  280145:	83 ec 0c             	sub    $0xc,%esp
  280148:	68 28 2f 28 00       	push   $0x282f28
  28014d:	e8 10 0b 00 00       	call   280c62 <fifo8_status>
  280152:	c7 04 24 40 2f 28 00 	movl   $0x282f40,(%esp)
  280159:	89 c7                	mov    %eax,%edi
  28015b:	e8 02 0b 00 00       	call   280c62 <fifo8_status>
  280160:	83 c4 10             	add    $0x10,%esp
  280163:	01 c7                	add    %eax,%edi
  280165:	85 ff                	test   %edi,%edi
  280167:	75 07                	jne    280170 <bootmain+0x170>
			io_stihlt();
  280169:	e8 53 0a 00 00       	call   280bc1 <io_stihlt>
  28016e:	eb d4                	jmp    280144 <bootmain+0x144>
		} else {
			if (fifo8_status(&keyfifo) != 0) {
  280170:	83 ec 0c             	sub    $0xc,%esp
  280173:	68 28 2f 28 00       	push   $0x282f28
  280178:	e8 e5 0a 00 00       	call   280c62 <fifo8_status>
  28017d:	83 c4 10             	add    $0x10,%esp
  280180:	85 c0                	test   %eax,%eax
  280182:	74 60                	je     2801e4 <bootmain+0x1e4>
				i = fifo8_get(&keyfifo);
  280184:	83 ec 0c             	sub    $0xc,%esp
  280187:	68 28 2f 28 00       	push   $0x282f28
  28018c:	e8 9c 0a 00 00       	call   280c2d <fifo8_get>
				io_sti();
  280191:	fb                   	sti    
				sprintf(s, "%x", i);
  280192:	83 c4 0c             	add    $0xc,%esp
  280195:	50                   	push   %eax
  280196:	68 c6 29 28 00       	push   $0x2829c6
  28019b:	56                   	push   %esi
  28019c:	e8 d7 04 00 00       	call   280678 <sprintf>
				boxfill8(bootp->vram, bootp->xsize, COL8_008484,  0, 16, 40, 31);
  2801a1:	83 c4 0c             	add    $0xc,%esp
  2801a4:	a1 24 2f 28 00       	mov    0x282f24,%eax
  2801a9:	6a 1f                	push   $0x1f
  2801ab:	6a 28                	push   $0x28
  2801ad:	6a 10                	push   $0x10
  2801af:	6a 00                	push   $0x0
  2801b1:	6a 0e                	push   $0xe
  2801b3:	0f bf 50 04          	movswl 0x4(%eax),%edx
  2801b7:	52                   	push   %edx
  2801b8:	ff 70 08             	pushl  0x8(%eax)
  2801bb:	e8 81 01 00 00       	call   280341 <boxfill8>
				puts8(bootp->vram, bootp->xsize, 0, 16, COL8_FFFFFF, s);
  2801c0:	83 c4 18             	add    $0x18,%esp
  2801c3:	a1 24 2f 28 00       	mov    0x282f24,%eax
  2801c8:	56                   	push   %esi
  2801c9:	6a 07                	push   $0x7
  2801cb:	6a 10                	push   $0x10
  2801cd:	6a 00                	push   $0x0
  2801cf:	0f bf 50 04          	movswl 0x4(%eax),%edx
  2801d3:	52                   	push   %edx
  2801d4:	ff 70 08             	pushl  0x8(%eax)
  2801d7:	e8 a8 05 00 00       	call   280784 <puts8>
  2801dc:	83 c4 20             	add    $0x20,%esp
  2801df:	e9 60 ff ff ff       	jmp    280144 <bootmain+0x144>
			} else if (fifo8_status(&mousefifo) != 0) {
  2801e4:	83 ec 0c             	sub    $0xc,%esp
  2801e7:	68 40 2f 28 00       	push   $0x282f40
  2801ec:	e8 71 0a 00 00       	call   280c62 <fifo8_status>
  2801f1:	83 c4 10             	add    $0x10,%esp
  2801f4:	85 c0                	test   %eax,%eax
  2801f6:	0f 84 48 ff ff ff    	je     280144 <bootmain+0x144>
				i = fifo8_get(&mousefifo);
  2801fc:	83 ec 0c             	sub    $0xc,%esp
  2801ff:	68 40 2f 28 00       	push   $0x282f40
  280204:	e8 24 0a 00 00       	call   280c2d <fifo8_get>
				io_sti();
  280209:	fb                   	sti    
				if (mouse_tot==-1){
  28020a:	83 c4 10             	add    $0x10,%esp
  28020d:	83 fb ff             	cmp    $0xffffffff,%ebx
  280210:	75 11                	jne    280223 <bootmain+0x223>
					if (i == 0xfa) mouse_tot=0;
  280212:	31 db                	xor    %ebx,%ebx
  280214:	3d fa 00 00 00       	cmp    $0xfa,%eax
  280219:	0f 95 c3             	setne  %bl
  28021c:	f7 db                	neg    %ebx
  28021e:	e9 21 ff ff ff       	jmp    280144 <bootmain+0x144>
				}else{
					glob.buf[mouse_tot++]=i;
  280223:	88 83 58 2f 28 00    	mov    %al,0x282f58(%ebx)
  280229:	43                   	inc    %ebx
					if (mouse_tot==3){
  28022a:	83 fb 03             	cmp    $0x3,%ebx
  28022d:	0f 85 11 ff ff ff    	jne    280144 <bootmain+0x144>
						mouse_tot=0;
						sprintf(s, "%x%x%x", glob.buf[0], glob.buf[1], glob.buf[2]);
  280233:	0f b6 05 5a 2f 28 00 	movzbl 0x282f5a,%eax
  28023a:	83 ec 0c             	sub    $0xc,%esp
				if (mouse_tot==-1){
					if (i == 0xfa) mouse_tot=0;
				}else{
					glob.buf[mouse_tot++]=i;
					if (mouse_tot==3){
						mouse_tot=0;
  28023d:	30 db                	xor    %bl,%bl
						sprintf(s, "%x%x%x", glob.buf[0], glob.buf[1], glob.buf[2]);
  28023f:	50                   	push   %eax
  280240:	0f b6 05 59 2f 28 00 	movzbl 0x282f59,%eax
  280247:	50                   	push   %eax
  280248:	0f b6 05 58 2f 28 00 	movzbl 0x282f58,%eax
  28024f:	50                   	push   %eax
  280250:	68 b5 29 28 00       	push   $0x2829b5
  280255:	56                   	push   %esi
  280256:	e8 1d 04 00 00       	call   280678 <sprintf>
						boxfill8(bootp->vram, bootp->xsize, COL8_008484, 50, 16, 210, 31);
  28025b:	83 c4 1c             	add    $0x1c,%esp
  28025e:	a1 24 2f 28 00       	mov    0x282f24,%eax
  280263:	6a 1f                	push   $0x1f
  280265:	68 d2 00 00 00       	push   $0xd2
  28026a:	6a 10                	push   $0x10
  28026c:	6a 32                	push   $0x32
  28026e:	6a 0e                	push   $0xe
  280270:	0f bf 50 04          	movswl 0x4(%eax),%edx
  280274:	52                   	push   %edx
  280275:	ff 70 08             	pushl  0x8(%eax)
  280278:	e8 c4 00 00 00       	call   280341 <boxfill8>
						puts8(bootp->vram, bootp->xsize, 50, 16, COL8_FFFFFF, s);
  28027d:	83 c4 18             	add    $0x18,%esp
  280280:	a1 24 2f 28 00       	mov    0x282f24,%eax
  280285:	56                   	push   %esi
  280286:	6a 07                	push   $0x7
  280288:	6a 10                	push   $0x10
  28028a:	6a 32                	push   $0x32
  28028c:	0f bf 50 04          	movswl 0x4(%eax),%edx
  280290:	52                   	push   %edx
  280291:	ff 70 08             	pushl  0x8(%eax)
  280294:	e8 eb 04 00 00       	call   280784 <puts8>
						mouse_move(bootp);
  280299:	83 c4 14             	add    $0x14,%esp
  28029c:	ff 35 24 2f 28 00    	pushl  0x282f24
  2802a2:	e8 38 0a 00 00       	call   280cdf <mouse_move>
  2802a7:	83 c4 10             	add    $0x10,%esp
  2802aa:	e9 95 fe ff ff       	jmp    280144 <bootmain+0x144>
  2802af:	90                   	nop

002802b0 <clear_screen>:
#include<header.h>

void clear_screen(char color) //15:pure white
{
  2802b0:	55                   	push   %ebp
  int i;
  for(i=0xa0000;i<0xaffff;i++)
  2802b1:	b8 00 00 0a 00       	mov    $0xa0000,%eax
#include<header.h>

void clear_screen(char color) //15:pure white
{
  2802b6:	89 e5                	mov    %esp,%ebp
  2802b8:	8a 55 08             	mov    0x8(%ebp),%dl
  int i;
  for(i=0xa0000;i<0xaffff;i++)
  {
  write_mem8(i,color);  //if we write 15 ,all pixels color will be white,15 mens pure white ,so the screen changes into white
  2802bb:	88 10                	mov    %dl,(%eax)
#include<header.h>

void clear_screen(char color) //15:pure white
{
  int i;
  for(i=0xa0000;i<0xaffff;i++)
  2802bd:	40                   	inc    %eax
  2802be:	3d ff ff 0a 00       	cmp    $0xaffff,%eax
  2802c3:	75 f6                	jne    2802bb <clear_screen+0xb>
  {
  write_mem8(i,color);  //if we write 15 ,all pixels color will be white,15 mens pure white ,so the screen changes into white

  }
}
  2802c5:	5d                   	pop    %ebp
  2802c6:	c3                   	ret    

002802c7 <color_screen>:

void color_screen(char color) //15:pure white
{
  2802c7:	55                   	push   %ebp
  int i;
  color=color;
  for(i=0xa0000;i<0xaffff;i++)
  2802c8:	b8 00 00 0a 00       	mov    $0xa0000,%eax

  }
}

void color_screen(char color) //15:pure white
{
  2802cd:	89 e5                	mov    %esp,%ebp
  int i;
  color=color;
  for(i=0xa0000;i<0xaffff;i++)
  {
  write_mem8(i,i);  //if we write 15 ,all pixels color will be white,15 mens pure white ,so the screen changes into white
  2802cf:	88 00                	mov    %al,(%eax)

void color_screen(char color) //15:pure white
{
  int i;
  color=color;
  for(i=0xa0000;i<0xaffff;i++)
  2802d1:	40                   	inc    %eax
  2802d2:	3d ff ff 0a 00       	cmp    $0xaffff,%eax
  2802d7:	75 f6                	jne    2802cf <color_screen+0x8>
  {
  write_mem8(i,i);  //if we write 15 ,all pixels color will be white,15 mens pure white ,so the screen changes into white

  }
}
  2802d9:	5d                   	pop    %ebp
  2802da:	c3                   	ret    

002802db <set_palette>:
   set_palette(0,255,table_rgb);
}

//设置调色板，  只用到了16个color,后面的都没有用到。
void set_palette(int start,int end, unsigned char *rgb)
{
  2802db:	55                   	push   %ebp
  2802dc:	89 e5                	mov    %esp,%ebp
  2802de:	56                   	push   %esi
  2802df:	8b 4d 10             	mov    0x10(%ebp),%ecx
  2802e2:	53                   	push   %ebx
  2802e3:	8b 5d 08             	mov    0x8(%ebp),%ebx
//read eflags and write_eflags
static __inline uint32_t
read_eflags(void)
{
        uint32_t eflags;
        __asm __volatile("pushfl; popl %0" : "=r" (eflags));
  2802e6:	9c                   	pushf  
  2802e7:	5e                   	pop    %esi
  int i,eflag;
  eflag=read_eflags();   //记录从前的cpsr值
 
  io_cli(); // disable interrupt
  2802e8:	fa                   	cli    
// out:write a data to a port
static __inline void
outb(int port, uint8_t data)
{
  //data是变量0%0 , port是变量word１%w1
	__asm __volatile("outb %0,%w1" : : "a" (data), "d" (port));
  2802e9:	ba c8 03 00 00       	mov    $0x3c8,%edx
  //为什么写port 0x03c8
  
  //rgb=rgb+;
  outb(0x03c8,start);
  2802ee:	0f b6 c3             	movzbl %bl,%eax
  2802f1:	ee                   	out    %al,(%dx)
  2802f2:	b2 c9                	mov    $0xc9,%dl
  for(i=start;i<=end;i++)
  2802f4:	3b 5d 0c             	cmp    0xc(%ebp),%ebx
  2802f7:	7f 11                	jg     28030a <set_palette+0x2f>
  2802f9:	8a 01                	mov    (%ecx),%al
  2802fb:	ee                   	out    %al,(%dx)
  2802fc:	8a 41 01             	mov    0x1(%ecx),%al
  2802ff:	ee                   	out    %al,(%dx)
  280300:	8a 41 02             	mov    0x2(%ecx),%al
  280303:	ee                   	out    %al,(%dx)
  {
    outb(0x03c9,*(rgb));    //outb函数是往指定的设备，送数据。
    outb(0x03c9,*(rgb+1));   
    outb(0x03c9,*(rgb+2));   
    rgb=rgb+3;
  280304:	83 c1 03             	add    $0x3,%ecx
  io_cli(); // disable interrupt
  //为什么写port 0x03c8
  
  //rgb=rgb+;
  outb(0x03c8,start);
  for(i=start;i<=end;i++)
  280307:	43                   	inc    %ebx
  280308:	eb ea                	jmp    2802f4 <set_palette+0x19>
}

static __inline void
write_eflags(uint32_t eflags)
{
        __asm __volatile("pushl %0; popfl" : : "r" (eflags));
  28030a:	56                   	push   %esi
  28030b:	9d                   	popf   
  }
  
write_eflags(eflag);  //恢复从前的cpsr
  return;
  
}
  28030c:	5b                   	pop    %ebx
  28030d:	5e                   	pop    %esi
  28030e:	5d                   	pop    %ebp
  28030f:	c3                   	ret    

00280310 <init_palette>:
}

//初始化调色板，table_rgb[]保存了16种color的编码。
//什么调色板是这样进行设置，这个与x86的port 0x03c8 0x03c9
void init_palette(void)
{
  280310:	55                   	push   %ebp
  //16种color，每个color三个字节。
unsigned char table_rgb[16*3]={
  280311:	b9 0c 00 00 00       	mov    $0xc,%ecx
}

//初始化调色板，table_rgb[]保存了16种color的编码。
//什么调色板是这样进行设置，这个与x86的port 0x03c8 0x03c9
void init_palette(void)
{
  280316:	89 e5                	mov    %esp,%ebp
  280318:	57                   	push   %edi
  280319:	56                   	push   %esi
  //16种color，每个color三个字节。
unsigned char table_rgb[16*3]={
  28031a:	be 70 28 28 00       	mov    $0x282870,%esi
}

//初始化调色板，table_rgb[]保存了16种color的编码。
//什么调色板是这样进行设置，这个与x86的port 0x03c8 0x03c9
void init_palette(void)
{
  28031f:	83 ec 30             	sub    $0x30,%esp
    0x00,0x00,0x84,   /*12:dark 青*/
    0x84,0x00,0x84,   /*13:dark purper*/
    0x00,0x84,0x84,   /*14:light blue*/
    0x84,0x84,0x84,   /*15:dark gray*/
  };
   set_palette(0,255,table_rgb);
  280322:	8d 45 c8             	lea    -0x38(%ebp),%eax
//初始化调色板，table_rgb[]保存了16种color的编码。
//什么调色板是这样进行设置，这个与x86的port 0x03c8 0x03c9
void init_palette(void)
{
  //16种color，每个color三个字节。
unsigned char table_rgb[16*3]={
  280325:	8d 7d c8             	lea    -0x38(%ebp),%edi
  280328:	f3 a5                	rep movsl %ds:(%esi),%es:(%edi)
    0x00,0x00,0x84,   /*12:dark 青*/
    0x84,0x00,0x84,   /*13:dark purper*/
    0x00,0x84,0x84,   /*14:light blue*/
    0x84,0x84,0x84,   /*15:dark gray*/
  };
   set_palette(0,255,table_rgb);
  28032a:	50                   	push   %eax
  28032b:	68 ff 00 00 00       	push   $0xff
  280330:	6a 00                	push   $0x0
  280332:	e8 a4 ff ff ff       	call   2802db <set_palette>
  280337:	83 c4 0c             	add    $0xc,%esp
}
  28033a:	8d 65 f8             	lea    -0x8(%ebp),%esp
  28033d:	5e                   	pop    %esi
  28033e:	5f                   	pop    %edi
  28033f:	5d                   	pop    %ebp
  280340:	c3                   	ret    

00280341 <boxfill8>:
  return;
  
}

void boxfill8(unsigned char *vram,int xsize,unsigned char color,int x0,int y0,int x1,int y1)
{
  280341:	55                   	push   %ebp
  280342:	89 e5                	mov    %esp,%ebp
  280344:	8b 4d 18             	mov    0x18(%ebp),%ecx
  280347:	8b 45 0c             	mov    0xc(%ebp),%eax
  28034a:	53                   	push   %ebx
  28034b:	8a 5d 10             	mov    0x10(%ebp),%bl
  28034e:	0f af c1             	imul   %ecx,%eax
  280351:	03 45 08             	add    0x8(%ebp),%eax
 int x,y;
 for(y=y0;y<=y1;y++)
  280354:	3b 4d 20             	cmp    0x20(%ebp),%ecx
  280357:	7f 14                	jg     28036d <boxfill8+0x2c>
  280359:	8b 55 14             	mov    0x14(%ebp),%edx
 {
   for(x=x0;x<=x1;x++)
  28035c:	3b 55 1c             	cmp    0x1c(%ebp),%edx
  28035f:	7f 06                	jg     280367 <boxfill8+0x26>
   {
      vram[y*xsize+x]=color;
  280361:	88 1c 10             	mov    %bl,(%eax,%edx,1)
void boxfill8(unsigned char *vram,int xsize,unsigned char color,int x0,int y0,int x1,int y1)
{
 int x,y;
 for(y=y0;y<=y1;y++)
 {
   for(x=x0;x<=x1;x++)
  280364:	42                   	inc    %edx
  280365:	eb f5                	jmp    28035c <boxfill8+0x1b>
}

void boxfill8(unsigned char *vram,int xsize,unsigned char color,int x0,int y0,int x1,int y1)
{
 int x,y;
 for(y=y0;y<=y1;y++)
  280367:	41                   	inc    %ecx
  280368:	03 45 0c             	add    0xc(%ebp),%eax
  28036b:	eb e7                	jmp    280354 <boxfill8+0x13>
   {
      vram[y*xsize+x]=color;
   }
 }
   
}
  28036d:	5b                   	pop    %ebx
  28036e:	5d                   	pop    %ebp
  28036f:	c3                   	ret    

00280370 <boxfill>:
void boxfill(unsigned char color,int x0,int y0,int x1,int y1)
{
  280370:	55                   	push   %ebp
  280371:	89 e5                	mov    %esp,%ebp
  boxfill8((unsigned char *)VRAM,320,color,x0,y0,x1,y1);
  280373:	ff 75 18             	pushl  0x18(%ebp)
  280376:	ff 75 14             	pushl  0x14(%ebp)
  280379:	ff 75 10             	pushl  0x10(%ebp)
  28037c:	ff 75 0c             	pushl  0xc(%ebp)
  28037f:	0f b6 45 08          	movzbl 0x8(%ebp),%eax
  280383:	50                   	push   %eax
  280384:	68 40 01 00 00       	push   $0x140
  280389:	68 00 00 0a 00       	push   $0xa0000
  28038e:	e8 ae ff ff ff       	call   280341 <boxfill8>
  280393:	83 c4 1c             	add    $0x1c,%esp
}
  280396:	c9                   	leave  
  280397:	c3                   	ret    

00280398 <draw_window>:

void draw_window()
{ 
  280398:	55                   	push   %ebp
  280399:	89 e5                	mov    %esp,%ebp
  int x=320,y=200;
    p=(unsigned char*)VRAM;
//     boxfill8(p,320,110,20,20,250,150);
    
    //draw a window
    boxfill(7 ,0, 0   ,x-1,y-29);
  28039b:	68 ab 00 00 00       	push   $0xab
  2803a0:	68 3f 01 00 00       	push   $0x13f
  2803a5:	6a 00                	push   $0x0
  2803a7:	6a 00                	push   $0x0
  2803a9:	6a 07                	push   $0x7
  2803ab:	e8 c0 ff ff ff       	call   280370 <boxfill>
//task button    
    boxfill(8  ,0, y-28,x-1,y-28);
  2803b0:	68 ac 00 00 00       	push   $0xac
  2803b5:	68 3f 01 00 00       	push   $0x13f
  2803ba:	68 ac 00 00 00       	push   $0xac
  2803bf:	6a 00                	push   $0x0
  2803c1:	6a 08                	push   $0x8
  2803c3:	e8 a8 ff ff ff       	call   280370 <boxfill>
    boxfill(7  ,0, y-27,x-1,y-27);
  2803c8:	83 c4 28             	add    $0x28,%esp
  2803cb:	68 ad 00 00 00       	push   $0xad
  2803d0:	68 3f 01 00 00       	push   $0x13f
  2803d5:	68 ad 00 00 00       	push   $0xad
  2803da:	6a 00                	push   $0x0
  2803dc:	6a 07                	push   $0x7
  2803de:	e8 8d ff ff ff       	call   280370 <boxfill>
    boxfill(8  ,0, y-26,x-1,y-1);
  2803e3:	68 c7 00 00 00       	push   $0xc7
  2803e8:	68 3f 01 00 00       	push   $0x13f
  2803ed:	68 ae 00 00 00       	push   $0xae
  2803f2:	6a 00                	push   $0x0
  2803f4:	6a 08                	push   $0x8
  2803f6:	e8 75 ff ff ff       	call   280370 <boxfill>
    
    
//left button    
    boxfill(7, 3,  y-24, 59,  y-24);
  2803fb:	83 c4 28             	add    $0x28,%esp
  2803fe:	68 b0 00 00 00       	push   $0xb0
  280403:	6a 3b                	push   $0x3b
  280405:	68 b0 00 00 00       	push   $0xb0
  28040a:	6a 03                	push   $0x3
  28040c:	6a 07                	push   $0x7
  28040e:	e8 5d ff ff ff       	call   280370 <boxfill>
    boxfill(7, 2,  y-24, 2 ,  y-4);  
  280413:	68 c4 00 00 00       	push   $0xc4
  280418:	6a 02                	push   $0x2
  28041a:	68 b0 00 00 00       	push   $0xb0
  28041f:	6a 02                	push   $0x2
  280421:	6a 07                	push   $0x7
  280423:	e8 48 ff ff ff       	call   280370 <boxfill>
    boxfill(15, 3,  y-4,  59,  y-4);
  280428:	83 c4 28             	add    $0x28,%esp
  28042b:	68 c4 00 00 00       	push   $0xc4
  280430:	6a 3b                	push   $0x3b
  280432:	68 c4 00 00 00       	push   $0xc4
  280437:	6a 03                	push   $0x3
  280439:	6a 0f                	push   $0xf
  28043b:	e8 30 ff ff ff       	call   280370 <boxfill>
    boxfill(15, 59, y-23, 59,  y-5);
  280440:	68 c3 00 00 00       	push   $0xc3
  280445:	6a 3b                	push   $0x3b
  280447:	68 b1 00 00 00       	push   $0xb1
  28044c:	6a 3b                	push   $0x3b
  28044e:	6a 0f                	push   $0xf
  280450:	e8 1b ff ff ff       	call   280370 <boxfill>
    boxfill(0, 2,  y-3,  59,  y-3);
  280455:	83 c4 28             	add    $0x28,%esp
  280458:	68 c5 00 00 00       	push   $0xc5
  28045d:	6a 3b                	push   $0x3b
  28045f:	68 c5 00 00 00       	push   $0xc5
  280464:	6a 02                	push   $0x2
  280466:	6a 00                	push   $0x0
  280468:	e8 03 ff ff ff       	call   280370 <boxfill>
    boxfill(0, 60, y-24, 60,  y-3);  
  28046d:	68 c5 00 00 00       	push   $0xc5
  280472:	6a 3c                	push   $0x3c
  280474:	68 b0 00 00 00       	push   $0xb0
  280479:	6a 3c                	push   $0x3c
  28047b:	6a 00                	push   $0x0
  28047d:	e8 ee fe ff ff       	call   280370 <boxfill>

// 
//right button    
    boxfill(15, x-47, y-24,x-4,y-24);
  280482:	83 c4 28             	add    $0x28,%esp
  280485:	68 b0 00 00 00       	push   $0xb0
  28048a:	68 3c 01 00 00       	push   $0x13c
  28048f:	68 b0 00 00 00       	push   $0xb0
  280494:	68 11 01 00 00       	push   $0x111
  280499:	6a 0f                	push   $0xf
  28049b:	e8 d0 fe ff ff       	call   280370 <boxfill>
    boxfill(15, x-47, y-23,x-47,y-4);  
  2804a0:	68 c4 00 00 00       	push   $0xc4
  2804a5:	68 11 01 00 00       	push   $0x111
  2804aa:	68 b1 00 00 00       	push   $0xb1
  2804af:	68 11 01 00 00       	push   $0x111
  2804b4:	6a 0f                	push   $0xf
  2804b6:	e8 b5 fe ff ff       	call   280370 <boxfill>
    boxfill(7, x-47, y-3,x-4,y-3);
  2804bb:	83 c4 28             	add    $0x28,%esp
  2804be:	68 c5 00 00 00       	push   $0xc5
  2804c3:	68 3c 01 00 00       	push   $0x13c
  2804c8:	68 c5 00 00 00       	push   $0xc5
  2804cd:	68 11 01 00 00       	push   $0x111
  2804d2:	6a 07                	push   $0x7
  2804d4:	e8 97 fe ff ff       	call   280370 <boxfill>
    boxfill(7, x-3, y-24,x-3,y-3);
  2804d9:	68 c5 00 00 00       	push   $0xc5
  2804de:	68 3d 01 00 00       	push   $0x13d
  2804e3:	68 b0 00 00 00       	push   $0xb0
  2804e8:	68 3d 01 00 00       	push   $0x13d
  2804ed:	6a 07                	push   $0x7
  2804ef:	e8 7c fe ff ff       	call   280370 <boxfill>
  2804f4:	83 c4 28             	add    $0x28,%esp
}
  2804f7:	c9                   	leave  
  2804f8:	c3                   	ret    

002804f9 <init_screen>:


void init_screen(struct boot_info * bootp)
{
  2804f9:	55                   	push   %ebp
  2804fa:	89 e5                	mov    %esp,%ebp
  2804fc:	8b 45 08             	mov    0x8(%ebp),%eax
  bootp->vram=(char *)VRAM;
  2804ff:	c7 40 08 00 00 0a 00 	movl   $0xa0000,0x8(%eax)
  bootp->color_mode=8;
  280506:	c6 40 02 08          	movb   $0x8,0x2(%eax)
  bootp->xsize=320;
  28050a:	66 c7 40 04 40 01    	movw   $0x140,0x4(%eax)
  bootp->ysize=200;
  280510:	66 c7 40 06 c8 00    	movw   $0xc8,0x6(%eax)
  
}
  280516:	5d                   	pop    %ebp
  280517:	c3                   	ret    

00280518 <init_mouse>:
	"*..........*OOO*",
	"............*OO*",
	".............***"
};
void init_mouse(char *mouse,char bg)
{
  280518:	55                   	push   %ebp
  280519:	31 c9                	xor    %ecx,%ecx
  28051b:	89 e5                	mov    %esp,%ebp
  28051d:	8a 45 0c             	mov    0xc(%ebp),%al
  280520:	8b 55 08             	mov    0x8(%ebp),%edx
  280523:	56                   	push   %esi
  280524:	53                   	push   %ebx
  280525:	89 c6                	mov    %eax,%esi
  280527:	31 c0                	xor    %eax,%eax
	int x,y;
	for(y=0;y<16;y++)
	{
	  for(x=0;x<16;x++)
	  {
	    switch (cursor[y][x])
  280529:	8a 9c 01 a0 28 28 00 	mov    0x2828a0(%ecx,%eax,1),%bl
  280530:	80 fb 2e             	cmp    $0x2e,%bl
  280533:	74 10                	je     280545 <init_mouse+0x2d>
  280535:	80 fb 4f             	cmp    $0x4f,%bl
  280538:	74 12                	je     28054c <init_mouse+0x34>
  28053a:	80 fb 2a             	cmp    $0x2a,%bl
  28053d:	75 11                	jne    280550 <init_mouse+0x38>
	    {
	      case '.':mouse[x+16*y]=bg;break;  //background
	      case '*':mouse[x+16*y]=outline;break;   //outline
  28053f:	c6 04 02 00          	movb   $0x0,(%edx,%eax,1)
  280543:	eb 0b                	jmp    280550 <init_mouse+0x38>
	{
	  for(x=0;x<16;x++)
	  {
	    switch (cursor[y][x])
	    {
	      case '.':mouse[x+16*y]=bg;break;  //background
  280545:	89 f3                	mov    %esi,%ebx
  280547:	88 1c 02             	mov    %bl,(%edx,%eax,1)
  28054a:	eb 04                	jmp    280550 <init_mouse+0x38>
	      case '*':mouse[x+16*y]=outline;break;   //outline
	      case 'O':mouse[x+16*y]=inside;break;  //inside
  28054c:	c6 04 02 02          	movb   $0x2,(%edx,%eax,1)
#define outline    0
#define inside     2
	int x,y;
	for(y=0;y<16;y++)
	{
	  for(x=0;x<16;x++)
  280550:	40                   	inc    %eax
  280551:	83 f8 10             	cmp    $0x10,%eax
  280554:	75 d3                	jne    280529 <init_mouse+0x11>
  280556:	83 c1 10             	add    $0x10,%ecx
  280559:	83 c2 10             	add    $0x10,%edx
{
#define background 7
#define outline    0
#define inside     2
	int x,y;
	for(y=0;y<16;y++)
  28055c:	81 f9 00 01 00 00    	cmp    $0x100,%ecx
  280562:	75 c3                	jne    280527 <init_mouse+0xf>
	    
	  }
	  
	}
  
}
  280564:	5b                   	pop    %ebx
  280565:	5e                   	pop    %esi
  280566:	5d                   	pop    %ebp
  280567:	c3                   	ret    

00280568 <display_mouse>:

void display_mouse(char *vram,int xsize,int pxsize,int pysize,int px0,int py0,char *buf,int bxsize)
{
  280568:	55                   	push   %ebp
  280569:	89 e5                	mov    %esp,%ebp
  28056b:	57                   	push   %edi
  28056c:	8b 45 1c             	mov    0x1c(%ebp),%eax
  int x,y;
  for(y=0;y<pysize;y++)
  28056f:	31 ff                	xor    %edi,%edi
	}
  
}

void display_mouse(char *vram,int xsize,int pxsize,int pysize,int px0,int py0,char *buf,int bxsize)
{
  280571:	56                   	push   %esi
  280572:	53                   	push   %ebx
  280573:	8b 5d 20             	mov    0x20(%ebp),%ebx
  280576:	0f af 45 0c          	imul   0xc(%ebp),%eax
  28057a:	03 45 18             	add    0x18(%ebp),%eax
  28057d:	03 45 08             	add    0x8(%ebp),%eax
  int x,y;
  for(y=0;y<pysize;y++)
  280580:	3b 7d 14             	cmp    0x14(%ebp),%edi
  280583:	7d 28                	jge    2805ad <display_mouse+0x45>
  280585:	89 fe                	mov    %edi,%esi
  280587:	31 d2                	xor    %edx,%edx
  280589:	c1 e6 04             	shl    $0x4,%esi
  {
    for(x=0;x<pxsize;x++)
  28058c:	3b 55 10             	cmp    0x10(%ebp),%edx
  28058f:	7d 13                	jge    2805a4 <display_mouse+0x3c>
    {
		if (cursor[y][x]!='.')
  280591:	80 bc 16 a0 28 28 00 	cmpb   $0x2e,0x2828a0(%esi,%edx,1)
  280598:	2e 
  280599:	74 06                	je     2805a1 <display_mouse+0x39>
     		vram[(py0+y)*xsize+(px0+x)]=buf[y*bxsize+x];
  28059b:	8a 0c 13             	mov    (%ebx,%edx,1),%cl
  28059e:	88 0c 10             	mov    %cl,(%eax,%edx,1)
void display_mouse(char *vram,int xsize,int pxsize,int pysize,int px0,int py0,char *buf,int bxsize)
{
  int x,y;
  for(y=0;y<pysize;y++)
  {
    for(x=0;x<pxsize;x++)
  2805a1:	42                   	inc    %edx
  2805a2:	eb e8                	jmp    28058c <display_mouse+0x24>
}

void display_mouse(char *vram,int xsize,int pxsize,int pysize,int px0,int py0,char *buf,int bxsize)
{
  int x,y;
  for(y=0;y<pysize;y++)
  2805a4:	47                   	inc    %edi
  2805a5:	03 5d 24             	add    0x24(%ebp),%ebx
  2805a8:	03 45 0c             	add    0xc(%ebp),%eax
  2805ab:	eb d3                	jmp    280580 <display_mouse+0x18>
		if (cursor[y][x]!='.')
     		vram[(py0+y)*xsize+(px0+x)]=buf[y*bxsize+x];
    }
  }
  
}
  2805ad:	5b                   	pop    %ebx
  2805ae:	5e                   	pop    %esi
  2805af:	5f                   	pop    %edi
  2805b0:	5d                   	pop    %ebp
  2805b1:	c3                   	ret    
  2805b2:	66 90                	xchg   %ax,%ax

002805b4 <itoa>:
sprintf(font,"Debug:var=%x" ,i);
puts8((char *)VRAM ,320,x,150,1,font);

}

void itoa(int value,char *buf){
  2805b4:	55                   	push   %ebp
    char tmp_buf[10] = {0};
  2805b5:	31 c0                	xor    %eax,%eax
sprintf(font,"Debug:var=%x" ,i);
puts8((char *)VRAM ,320,x,150,1,font);

}

void itoa(int value,char *buf){
  2805b7:	89 e5                	mov    %esp,%ebp
    char tmp_buf[10] = {0};
  2805b9:	b9 0a 00 00 00       	mov    $0xa,%ecx
sprintf(font,"Debug:var=%x" ,i);
puts8((char *)VRAM ,320,x,150,1,font);

}

void itoa(int value,char *buf){
  2805be:	57                   	push   %edi
  2805bf:	56                   	push   %esi
  2805c0:	53                   	push   %ebx
  2805c1:	83 ec 10             	sub    $0x10,%esp
  2805c4:	8b 55 08             	mov    0x8(%ebp),%edx
    char tmp_buf[10] = {0};
  2805c7:	8d 7d ea             	lea    -0x16(%ebp),%edi
sprintf(font,"Debug:var=%x" ,i);
puts8((char *)VRAM ,320,x,150,1,font);

}

void itoa(int value,char *buf){
  2805ca:	8b 5d 0c             	mov    0xc(%ebp),%ebx
    char tmp_buf[10] = {0};
  2805cd:	f3 aa                	rep stos %al,%es:(%edi)
  2805cf:	8d 7d ea             	lea    -0x16(%ebp),%edi
    char *tbp = tmp_buf;
    if((value >> 31) & 0x1)
  2805d2:	85 d2                	test   %edx,%edx
  2805d4:	79 06                	jns    2805dc <itoa+0x28>
    { /* neg num */
        *buf++ = '-';//得到负号
  2805d6:	c6 03 2d             	movb   $0x2d,(%ebx)
        value = ~value + 1; //将负数变为正数
  2805d9:	f7 da                	neg    %edx
void itoa(int value,char *buf){
    char tmp_buf[10] = {0};
    char *tbp = tmp_buf;
    if((value >> 31) & 0x1)
    { /* neg num */
        *buf++ = '-';//得到负号
  2805db:	43                   	inc    %ebx
  2805dc:	89 f9                	mov    %edi,%ecx
    
    
  
    do
    {
        *tbp++ = ('0' + (char)(value % 10));//得到低位数字
  2805de:	be 0a 00 00 00       	mov    $0xa,%esi
  2805e3:	89 d0                	mov    %edx,%eax
  2805e5:	41                   	inc    %ecx
  2805e6:	99                   	cltd   
  2805e7:	f7 fe                	idiv   %esi
  2805e9:	83 c2 30             	add    $0x30,%edx
        value /= 10;
    }while(value);
  2805ec:	85 c0                	test   %eax,%eax
    
    
  
    do
    {
        *tbp++ = ('0' + (char)(value % 10));//得到低位数字
  2805ee:	88 51 ff             	mov    %dl,-0x1(%ecx)
        value /= 10;
  2805f1:	89 c2                	mov    %eax,%edx
    }while(value);
  2805f3:	75 ee                	jne    2805e3 <itoa+0x2f>
    
    
  
    do
    {
        *tbp++ = ('0' + (char)(value % 10));//得到低位数字
  2805f5:	89 ce                	mov    %ecx,%esi
  2805f7:	89 d8                	mov    %ebx,%eax
        value /= 10;
    }while(value);
    
    
    while(tmp_buf != tbp)
  2805f9:	39 f9                	cmp    %edi,%ecx
  2805fb:	74 09                	je     280606 <itoa+0x52>
    {
      tbp--;
  2805fd:	49                   	dec    %ecx
      *buf++ = *tbp;
  2805fe:	8a 11                	mov    (%ecx),%dl
  280600:	40                   	inc    %eax
  280601:	88 50 ff             	mov    %dl,-0x1(%eax)
  280604:	eb f3                	jmp    2805f9 <itoa+0x45>
  280606:	89 f0                	mov    %esi,%eax
  280608:	29 c8                	sub    %ecx,%eax

    }
    *buf='\0';
  28060a:	c6 04 03 00          	movb   $0x0,(%ebx,%eax,1)
    
    
}
  28060e:	83 c4 10             	add    $0x10,%esp
  280611:	5b                   	pop    %ebx
  280612:	5e                   	pop    %esi
  280613:	5f                   	pop    %edi
  280614:	5d                   	pop    %ebp
  280615:	c3                   	ret    

00280616 <xtoa>:
    else
        value = value + 48;
    return value;
}

void xtoa(unsigned int value,char *buf){
  280616:	55                   	push   %ebp
    char tmp_buf[30] = {0};
  280617:	31 c0                	xor    %eax,%eax
    else
        value = value + 48;
    return value;
}

void xtoa(unsigned int value,char *buf){
  280619:	89 e5                	mov    %esp,%ebp
    char tmp_buf[30] = {0};
  28061b:	b9 1e 00 00 00       	mov    $0x1e,%ecx
    else
        value = value + 48;
    return value;
}

void xtoa(unsigned int value,char *buf){
  280620:	57                   	push   %edi
  280621:	56                   	push   %esi
  280622:	53                   	push   %ebx
  280623:	83 ec 20             	sub    $0x20,%esp
  280626:	8b 55 0c             	mov    0xc(%ebp),%edx
    char tmp_buf[30] = {0};
  280629:	8d 7d d6             	lea    -0x2a(%ebp),%edi
  28062c:	f3 aa                	rep stos %al,%es:(%edi)
    char *tbp = tmp_buf;
  28062e:	8d 45 d6             	lea    -0x2a(%ebp),%eax

    *buf++='0';
  280631:	c6 02 30             	movb   $0x30,(%edx)
    *buf++='x';
  280634:	8d 72 02             	lea    0x2(%edx),%esi
  280637:	c6 42 01 78          	movb   $0x78,0x1(%edx)
  
    do
    {
        // *tbp++ = ('0' + (char)(value % 16));//得到低位数字
	*tbp++=fourbtoc(value&0x0000000f);
  28063b:	8b 5d 08             	mov    0x8(%ebp),%ebx
  28063e:	40                   	inc    %eax
  28063f:	83 e3 0f             	and    $0xf,%ebx
    
    
}
static  inline char fourbtoc(int value){
    if(value >= 10)
        value = value - 10 + 65;
  280642:	83 fb 0a             	cmp    $0xa,%ebx
  280645:	8d 4b 37             	lea    0x37(%ebx),%ecx
  280648:	8d 7b 30             	lea    0x30(%ebx),%edi
  28064b:	0f 4c cf             	cmovl  %edi,%ecx
        // *tbp++ = ('0' + (char)(value % 16));//得到低位数字
	*tbp++=fourbtoc(value&0x0000000f);
        
        //*tbp++ = ((value % 16)>9)?('A' + (char)(value % 16-10)):('0' + (char)(value % 16));//得到低位数字
        value >>= 4;
    }while(value);
  28064e:	c1 6d 08 04          	shrl   $0x4,0x8(%ebp)
static  inline char fourbtoc(int value){
    if(value >= 10)
        value = value - 10 + 65;
    else
        value = value + 48;
    return value;
  280652:	88 48 ff             	mov    %cl,-0x1(%eax)
        // *tbp++ = ('0' + (char)(value % 16));//得到低位数字
	*tbp++=fourbtoc(value&0x0000000f);
        
        //*tbp++ = ((value % 16)>9)?('A' + (char)(value % 16-10)):('0' + (char)(value % 16));//得到低位数字
        value >>= 4;
    }while(value);
  280655:	75 e4                	jne    28063b <xtoa+0x25>
    *buf++='x';
  
    do
    {
        // *tbp++ = ('0' + (char)(value % 16));//得到低位数字
	*tbp++=fourbtoc(value&0x0000000f);
  280657:	89 c3                	mov    %eax,%ebx
        //*tbp++ = ((value % 16)>9)?('A' + (char)(value % 16-10)):('0' + (char)(value % 16));//得到低位数字
        value >>= 4;
    }while(value);
    
    
    while(tmp_buf != tbp)
  280659:	8d 7d d6             	lea    -0x2a(%ebp),%edi
  28065c:	39 f8                	cmp    %edi,%eax
  28065e:	74 09                	je     280669 <xtoa+0x53>
    {
      tbp--;
  280660:	48                   	dec    %eax
      *buf++ = *tbp;
  280661:	8a 08                	mov    (%eax),%cl
  280663:	46                   	inc    %esi
  280664:	88 4e ff             	mov    %cl,-0x1(%esi)
  280667:	eb f0                	jmp    280659 <xtoa+0x43>
  280669:	29 c3                	sub    %eax,%ebx

    }
    *buf='\0';
  28066b:	c6 44 1a 02 00       	movb   $0x0,0x2(%edx,%ebx,1)
    
    
}
  280670:	83 c4 20             	add    $0x20,%esp
  280673:	5b                   	pop    %ebx
  280674:	5e                   	pop    %esi
  280675:	5f                   	pop    %edi
  280676:	5d                   	pop    %ebp
  280677:	c3                   	ret    

00280678 <sprintf>:



//实现可变参数的打印，主要是为了观察打印的变量。
void sprintf(char *str,char *format ,...)
{
  280678:	55                   	push   %ebp
  280679:	89 e5                	mov    %esp,%ebp
  28067b:	57                   	push   %edi
  28067c:	56                   	push   %esi
  28067d:	53                   	push   %ebx
  28067e:	83 ec 10             	sub    $0x10,%esp
  280681:	8b 5d 08             	mov    0x8(%ebp),%ebx
  
   int *var=(int *)(&format)+1; //得到第一个可变参数的地址
  280684:	8d 75 10             	lea    0x10(%ebp),%esi
   char buffer[10];
   char *buf=buffer;
  while(*format)
  280687:	8b 7d 0c             	mov    0xc(%ebp),%edi
  28068a:	8a 07                	mov    (%edi),%al
  28068c:	84 c0                	test   %al,%al
  28068e:	0f 84 83 00 00 00    	je     280717 <sprintf+0x9f>
  280694:	8d 4f 01             	lea    0x1(%edi),%ecx
  {
      if(*format!='%')
  280697:	3c 25                	cmp    $0x25,%al
      {
	*str++=*format++;
  280699:	89 4d 0c             	mov    %ecx,0xc(%ebp)
   int *var=(int *)(&format)+1; //得到第一个可变参数的地址
   char buffer[10];
   char *buf=buffer;
  while(*format)
  {
      if(*format!='%')
  28069c:	74 05                	je     2806a3 <sprintf+0x2b>
      {
	*str++=*format++;
  28069e:	88 03                	mov    %al,(%ebx)
  2806a0:	43                   	inc    %ebx
	continue;
  2806a1:	eb e4                	jmp    280687 <sprintf+0xf>
      }
      else
      {
	format++;
	switch (*format)
  2806a3:	8a 47 01             	mov    0x1(%edi),%al
  2806a6:	3c 73                	cmp    $0x73,%al
  2806a8:	74 46                	je     2806f0 <sprintf+0x78>
  2806aa:	3c 78                	cmp    $0x78,%al
  2806ac:	74 23                	je     2806d1 <sprintf+0x59>
  2806ae:	3c 64                	cmp    $0x64,%al
  2806b0:	75 53                	jne    280705 <sprintf+0x8d>
	{
	  case 'd':itoa(*var,buf);while(*buf){*str++=*buf++;};break;
  2806b2:	8d 45 ea             	lea    -0x16(%ebp),%eax
  2806b5:	50                   	push   %eax
  2806b6:	ff 36                	pushl  (%esi)
  2806b8:	e8 f7 fe ff ff       	call   2805b4 <itoa>
  2806bd:	59                   	pop    %ecx
  2806be:	8d 4d ea             	lea    -0x16(%ebp),%ecx
  2806c1:	58                   	pop    %eax
  2806c2:	89 d8                	mov    %ebx,%eax
  2806c4:	8a 19                	mov    (%ecx),%bl
  2806c6:	84 db                	test   %bl,%bl
  2806c8:	74 3d                	je     280707 <sprintf+0x8f>
  2806ca:	40                   	inc    %eax
  2806cb:	41                   	inc    %ecx
  2806cc:	88 58 ff             	mov    %bl,-0x1(%eax)
  2806cf:	eb f3                	jmp    2806c4 <sprintf+0x4c>
	  case 'x':xtoa(*var,buf);while(*buf){*str++=*buf++;};break;
  2806d1:	8d 45 ea             	lea    -0x16(%ebp),%eax
  2806d4:	50                   	push   %eax
  2806d5:	ff 36                	pushl  (%esi)
  2806d7:	e8 3a ff ff ff       	call   280616 <xtoa>
  2806dc:	8d 4d ea             	lea    -0x16(%ebp),%ecx
  2806df:	58                   	pop    %eax
  2806e0:	89 d8                	mov    %ebx,%eax
  2806e2:	5a                   	pop    %edx
  2806e3:	8a 19                	mov    (%ecx),%bl
  2806e5:	84 db                	test   %bl,%bl
  2806e7:	74 1e                	je     280707 <sprintf+0x8f>
  2806e9:	40                   	inc    %eax
  2806ea:	41                   	inc    %ecx
  2806eb:	88 58 ff             	mov    %bl,-0x1(%eax)
  2806ee:	eb f3                	jmp    2806e3 <sprintf+0x6b>
	  case 's':buf=(char*)(*var);while(*buf){*str++=*buf++;};break;
  2806f0:	8b 16                	mov    (%esi),%edx
  2806f2:	89 d8                	mov    %ebx,%eax
  2806f4:	89 c1                	mov    %eax,%ecx
  2806f6:	29 d9                	sub    %ebx,%ecx
  2806f8:	8a 0c 11             	mov    (%ecx,%edx,1),%cl
  2806fb:	84 c9                	test   %cl,%cl
  2806fd:	74 08                	je     280707 <sprintf+0x8f>
  2806ff:	40                   	inc    %eax
  280700:	88 48 ff             	mov    %cl,-0x1(%eax)
  280703:	eb ef                	jmp    2806f4 <sprintf+0x7c>
	continue;
      }
      else
      {
	format++;
	switch (*format)
  280705:	89 d8                	mov    %ebx,%eax
	  case 's':buf=(char*)(*var);while(*buf){*str++=*buf++;};break;
	  
	}
	buf=buffer;
	var++;
	format++;
  280707:	83 c7 02             	add    $0x2,%edi
	  case 'x':xtoa(*var,buf);while(*buf){*str++=*buf++;};break;
	  case 's':buf=(char*)(*var);while(*buf){*str++=*buf++;};break;
	  
	}
	buf=buffer;
	var++;
  28070a:	83 c6 04             	add    $0x4,%esi
	format++;
  28070d:	89 7d 0c             	mov    %edi,0xc(%ebp)
  280710:	89 c3                	mov    %eax,%ebx
  280712:	e9 70 ff ff ff       	jmp    280687 <sprintf+0xf>
	
      }
    
  }
  *str='\0';
  280717:	c6 03 00             	movb   $0x0,(%ebx)
  
}
  28071a:	8d 65 f4             	lea    -0xc(%ebp),%esp
  28071d:	5b                   	pop    %ebx
  28071e:	5e                   	pop    %esi
  28071f:	5f                   	pop    %edi
  280720:	5d                   	pop    %ebp
  280721:	c3                   	ret    

00280722 <putfont8>:
}
  
}

void putfont8(char *vram ,int xsize,int x,int y,char color,char *font)//x=0 311 y=0 183
{
  280722:	55                   	push   %ebp
  280723:	89 e5                	mov    %esp,%ebp
  280725:	57                   	push   %edi
  280726:	56                   	push   %esi
  280727:	53                   	push   %ebx
  280728:	83 ec 05             	sub    $0x5,%esp
  28072b:	8b 55 14             	mov    0x14(%ebp),%edx
  28072e:	8b 45 10             	mov    0x10(%ebp),%eax
  280731:	8a 5d 18             	mov    0x18(%ebp),%bl
  280734:	0f af 55 0c          	imul   0xc(%ebp),%edx
  280738:	03 45 08             	add    0x8(%ebp),%eax
  28073b:	c7 45 f0 00 00 00 00 	movl   $0x0,-0x10(%ebp)
  280742:	88 5d ef             	mov    %bl,-0x11(%ebp)
  280745:	8d 3c 10             	lea    (%eax,%edx,1),%edi
  int row,col;
  char d;
  for(row=0;row<16;row++)
  280748:	31 c0                	xor    %eax,%eax
  28074a:	8b 75 f0             	mov    -0x10(%ebp),%esi
  {
    d=font[row];
    for(col=0;col<8;col++)
  28074d:	31 c9                	xor    %ecx,%ecx
  28074f:	8d 1c 3e             	lea    (%esi,%edi,1),%ebx
    {
      if(d&(0x80>>col))
  280752:	8b 75 1c             	mov    0x1c(%ebp),%esi
  280755:	0f be 34 06          	movsbl (%esi,%eax,1),%esi
  280759:	ba 80 00 00 00       	mov    $0x80,%edx
  28075e:	d3 fa                	sar    %cl,%edx
  280760:	85 f2                	test   %esi,%edx
  280762:	74 06                	je     28076a <putfont8+0x48>
      {
	vram[(y+row)*xsize+x+col]=color;
  280764:	8a 55 ef             	mov    -0x11(%ebp),%dl
  280767:	88 14 0b             	mov    %dl,(%ebx,%ecx,1)
  int row,col;
  char d;
  for(row=0;row<16;row++)
  {
    d=font[row];
    for(col=0;col<8;col++)
  28076a:	41                   	inc    %ecx
  28076b:	83 f9 08             	cmp    $0x8,%ecx
  28076e:	75 e9                	jne    280759 <putfont8+0x37>

void putfont8(char *vram ,int xsize,int x,int y,char color,char *font)//x=0 311 y=0 183
{
  int row,col;
  char d;
  for(row=0;row<16;row++)
  280770:	40                   	inc    %eax
  280771:	8b 5d 0c             	mov    0xc(%ebp),%ebx
  280774:	01 5d f0             	add    %ebx,-0x10(%ebp)
  280777:	83 f8 10             	cmp    $0x10,%eax
  28077a:	75 ce                	jne    28074a <putfont8+0x28>
    }
    
  }
  return;
  
}
  28077c:	83 c4 05             	add    $0x5,%esp
  28077f:	5b                   	pop    %ebx
  280780:	5e                   	pop    %esi
  280781:	5f                   	pop    %edi
  280782:	5d                   	pop    %ebp
  280783:	c3                   	ret    

00280784 <puts8>:
  *str='\0';
  
}

void puts8(char *vram ,int xsize,int x,int y,char color,char *font)//x=0 311 y=0 183
{
  280784:	55                   	push   %ebp
  280785:	89 e5                	mov    %esp,%ebp
  280787:	57                   	push   %edi
  280788:	8b 7d 14             	mov    0x14(%ebp),%edi
  28078b:	56                   	push   %esi
      y=y+16;
      
    }
    else
    {  
    putfont8((char *)vram ,xsize,x,y,color,(char *)(Font8x16+(*font)*16));
  28078c:	0f be 75 18          	movsbl 0x18(%ebp),%esi
  *str='\0';
  
}

void puts8(char *vram ,int xsize,int x,int y,char color,char *font)//x=0 311 y=0 183
{
  280790:	53                   	push   %ebx
  280791:	8b 5d 10             	mov    0x10(%ebp),%ebx
  
 while(*font)
  280794:	8b 45 1c             	mov    0x1c(%ebp),%eax
  280797:	0f be 00             	movsbl (%eax),%eax
  28079a:	84 c0                	test   %al,%al
  28079c:	74 42                	je     2807e0 <puts8+0x5c>
 {
    if(*font=='\n')
  28079e:	3c 0a                	cmp    $0xa,%al
  2807a0:	75 05                	jne    2807a7 <puts8+0x23>
    {
      x=0;
      y=y+16;
  2807a2:	83 c7 10             	add    $0x10,%edi
  2807a5:	eb 32                	jmp    2807d9 <puts8+0x55>
      
    }
    else
    {  
    putfont8((char *)vram ,xsize,x,y,color,(char *)(Font8x16+(*font)*16));
  2807a7:	c1 e0 04             	shl    $0x4,%eax
  2807aa:	05 a0 0e 28 00       	add    $0x280ea0,%eax
  2807af:	50                   	push   %eax
  2807b0:	56                   	push   %esi
  2807b1:	57                   	push   %edi
  2807b2:	53                   	push   %ebx
    x+=8;
  2807b3:	83 c3 08             	add    $0x8,%ebx
      y=y+16;
      
    }
    else
    {  
    putfont8((char *)vram ,xsize,x,y,color,(char *)(Font8x16+(*font)*16));
  2807b6:	ff 75 0c             	pushl  0xc(%ebp)
  2807b9:	ff 75 08             	pushl  0x8(%ebp)
  2807bc:	e8 61 ff ff ff       	call   280722 <putfont8>
    x+=8;
    if(x>312)
  2807c1:	83 c4 18             	add    $0x18,%esp
  2807c4:	81 fb 38 01 00 00    	cmp    $0x138,%ebx
  2807ca:	7e 0f                	jle    2807db <puts8+0x57>
       {
	  x=0;
	  y+=16;
  2807cc:	83 c7 10             	add    $0x10,%edi
	  if(y>183)
  2807cf:	81 ff b7 00 00 00    	cmp    $0xb7,%edi
  2807d5:	7e 02                	jle    2807d9 <puts8+0x55>
	  {
	    x=0;
	    y=0;
  2807d7:	31 ff                	xor    %edi,%edi
       {
	  x=0;
	  y+=16;
	  if(y>183)
	  {
	    x=0;
  2807d9:	31 db                	xor    %ebx,%ebx
	    
	  }
        }    
    }
    
    font++;
  2807db:	ff 45 1c             	incl   0x1c(%ebp)
  2807de:	eb b4                	jmp    280794 <puts8+0x10>
}
  
}
  2807e0:	8d 65 f4             	lea    -0xc(%ebp),%esp
  2807e3:	5b                   	pop    %ebx
  2807e4:	5e                   	pop    %esi
  2807e5:	5f                   	pop    %edi
  2807e6:	5d                   	pop    %ebp
  2807e7:	c3                   	ret    

002807e8 <printdebug>:
#include<header.h>


void printdebug(int i,int x)
{
  2807e8:	55                   	push   %ebp
  2807e9:	89 e5                	mov    %esp,%ebp
  2807eb:	53                   	push   %ebx
  2807ec:	83 ec 20             	sub    $0x20,%esp
char font[30];
sprintf(font,"Debug:var=%x" ,i);
  2807ef:	ff 75 08             	pushl  0x8(%ebp)
  2807f2:	8d 5d de             	lea    -0x22(%ebp),%ebx
  2807f5:	68 bc 29 28 00       	push   $0x2829bc
  2807fa:	53                   	push   %ebx
  2807fb:	e8 78 fe ff ff       	call   280678 <sprintf>
puts8((char *)VRAM ,320,x,150,1,font);
  280800:	53                   	push   %ebx
  280801:	6a 01                	push   $0x1
  280803:	68 96 00 00 00       	push   $0x96
  280808:	ff 75 0c             	pushl  0xc(%ebp)
  28080b:	68 40 01 00 00       	push   $0x140
  280810:	68 00 00 0a 00       	push   $0xa0000
  280815:	e8 6a ff ff ff       	call   280784 <puts8>
  28081a:	83 c4 24             	add    $0x24,%esp

}
  28081d:	8b 5d fc             	mov    -0x4(%ebp),%ebx
  280820:	c9                   	leave  
  280821:	c3                   	ret    

00280822 <putfont16>:
      
  }
  
}
void putfont16(char *vram ,int xsize,int x,int y,char color,unsigned short *font)//x=0 311 y=0 183
{
  280822:	55                   	push   %ebp
  int row,col;
  unsigned short  d;
  unsigned short *pt=(unsigned short *)(font-32*24);
  for(row=0;row<24;row++)
  280823:	31 c9                	xor    %ecx,%ecx
      
  }
  
}
void putfont16(char *vram ,int xsize,int x,int y,char color,unsigned short *font)//x=0 311 y=0 183
{
  280825:	89 e5                	mov    %esp,%ebp
  280827:	8b 45 14             	mov    0x14(%ebp),%eax
  28082a:	56                   	push   %esi
  28082b:	53                   	push   %ebx
  28082c:	8a 5d 18             	mov    0x18(%ebp),%bl
  28082f:	0f af 45 0c          	imul   0xc(%ebp),%eax
  280833:	03 45 10             	add    0x10(%ebp),%eax
  280836:	03 45 08             	add    0x8(%ebp),%eax
  for(row=0;row<24;row++)
  {
    d=pt[row];
    for(col=0;col<16;col++)
    {
       if( (d&(1 << col) ))
  280839:	8b 75 1c             	mov    0x1c(%ebp),%esi
  unsigned short  d;
  unsigned short *pt=(unsigned short *)(font-32*24);
  for(row=0;row<24;row++)
  {
    d=pt[row];
    for(col=0;col<16;col++)
  28083c:	31 d2                	xor    %edx,%edx
    {
       if( (d&(1 << col) ))
  28083e:	0f b7 b4 4e 00 fa ff 	movzwl -0x600(%esi,%ecx,2),%esi
  280845:	ff 
  280846:	0f a3 d6             	bt     %edx,%esi
  280849:	73 03                	jae    28084e <putfont16+0x2c>
     // if((d<<col)&0x0001)
      {
	vram[(y+row)*xsize+x+col]=color;
  28084b:	88 1c 10             	mov    %bl,(%eax,%edx,1)
  unsigned short  d;
  unsigned short *pt=(unsigned short *)(font-32*24);
  for(row=0;row<24;row++)
  {
    d=pt[row];
    for(col=0;col<16;col++)
  28084e:	42                   	inc    %edx
  28084f:	83 fa 10             	cmp    $0x10,%edx
  280852:	75 f2                	jne    280846 <putfont16+0x24>
void putfont16(char *vram ,int xsize,int x,int y,char color,unsigned short *font)//x=0 311 y=0 183
{
  int row,col;
  unsigned short  d;
  unsigned short *pt=(unsigned short *)(font-32*24);
  for(row=0;row<24;row++)
  280854:	41                   	inc    %ecx
  280855:	03 45 0c             	add    0xc(%ebp),%eax
  280858:	83 f9 18             	cmp    $0x18,%ecx
  28085b:	75 dc                	jne    280839 <putfont16+0x17>
    }
    
  }
  return;
  
}
  28085d:	5b                   	pop    %ebx
  28085e:	5e                   	pop    %esi
  28085f:	5d                   	pop    %ebp
  280860:	c3                   	ret    

00280861 <puts16>:
  return;
  
}
//print string: big string
void puts16(char *vram ,int xsize,int x,int y,char color,char *font)
{
  280861:	55                   	push   %ebp
  280862:	89 e5                	mov    %esp,%ebp
  280864:	57                   	push   %edi
  280865:	8b 7d 10             	mov    0x10(%ebp),%edi
  280868:	56                   	push   %esi
  280869:	8b 75 14             	mov    0x14(%ebp),%esi
  28086c:	53                   	push   %ebx
      
    }
    else
    {
	pt=(unsigned short *)((*font)*24+ASCII_Table);
	putfont16(vram ,xsize,x,y,color,pt);
  28086d:	0f be 5d 18          	movsbl 0x18(%ebp),%ebx
}
//print string: big string
void puts16(char *vram ,int xsize,int x,int y,char color,char *font)
{
  unsigned short  *pt;
  while(*font)
  280871:	8b 45 1c             	mov    0x1c(%ebp),%eax
  280874:	0f be 00             	movsbl (%eax),%eax
  280877:	84 c0                	test   %al,%al
  280879:	74 2d                	je     2808a8 <puts16+0x47>
  {
    if(*font=='\n')
  28087b:	3c 0a                	cmp    $0xa,%al
  28087d:	75 07                	jne    280886 <puts16+0x25>
    {
      x=0;
      y=y+24;
  28087f:	83 c6 18             	add    $0x18,%esi
  unsigned short  *pt;
  while(*font)
  {
    if(*font=='\n')
    {
      x=0;
  280882:	31 ff                	xor    %edi,%edi
  280884:	eb 1d                	jmp    2808a3 <puts16+0x42>
      y=y+24;
      
    }
    else
    {
	pt=(unsigned short *)((*font)*24+ASCII_Table);
  280886:	6b c0 30             	imul   $0x30,%eax,%eax
  280889:	05 a0 16 28 00       	add    $0x2816a0,%eax
	putfont16(vram ,xsize,x,y,color,pt);
  28088e:	50                   	push   %eax
  28088f:	53                   	push   %ebx
  280890:	56                   	push   %esi
  280891:	57                   	push   %edi
	x=x+16;
  280892:	83 c7 10             	add    $0x10,%edi
      
    }
    else
    {
	pt=(unsigned short *)((*font)*24+ASCII_Table);
	putfont16(vram ,xsize,x,y,color,pt);
  280895:	ff 75 0c             	pushl  0xc(%ebp)
  280898:	ff 75 08             	pushl  0x8(%ebp)
  28089b:	e8 82 ff ff ff       	call   280822 <putfont16>
	x=x+16;
  2808a0:	83 c4 18             	add    $0x18,%esp
	   
	   
    }
    
     font++;
  2808a3:	ff 45 1c             	incl   0x1c(%ebp)
  2808a6:	eb c9                	jmp    280871 <puts16+0x10>
      
  }
  
}
  2808a8:	8d 65 f4             	lea    -0xc(%ebp),%esp
  2808ab:	5b                   	pop    %ebx
  2808ac:	5e                   	pop    %esi
  2808ad:	5f                   	pop    %edi
  2808ae:	5d                   	pop    %ebp
  2808af:	c3                   	ret    

002808b0 <setgdt>:
#include<header.h>



void setgdt(struct GDT *sd ,unsigned int limit,int base,int access)//sd: selector describe
{
  2808b0:	55                   	push   %ebp
  2808b1:	89 e5                	mov    %esp,%ebp
  2808b3:	8b 55 0c             	mov    0xc(%ebp),%edx
  2808b6:	57                   	push   %edi
  2808b7:	8b 45 08             	mov    0x8(%ebp),%eax
  2808ba:	56                   	push   %esi
  2808bb:	8b 7d 14             	mov    0x14(%ebp),%edi
  2808be:	53                   	push   %ebx
  2808bf:	8b 5d 10             	mov    0x10(%ebp),%ebx
	if(limit>0xffff)
  2808c2:	81 fa ff ff 00 00    	cmp    $0xffff,%edx
  2808c8:	76 09                	jbe    2808d3 <setgdt+0x23>
	{
		access|=0x8000;
  2808ca:	81 cf 00 80 00 00    	or     $0x8000,%edi
		limit /=0x1000;
  2808d0:	c1 ea 0c             	shr    $0xc,%edx
	}
	sd->limit_low=limit&0xffff;
	sd->base_low=base &0xffff;
	sd->base_mid=(base>>16)&0xff;
  2808d3:	89 de                	mov    %ebx,%esi
  2808d5:	c1 fe 10             	sar    $0x10,%esi
  2808d8:	89 f1                	mov    %esi,%ecx
  2808da:	88 48 04             	mov    %cl,0x4(%eax)
	sd->access_right=access&0xff;
  2808dd:	89 f9                	mov    %edi,%ecx
	sd->limit_high=((limit>>16)&0x0f)|((access>>8)&0xf0);//低４位是limt的高位，高４位是访问的权限设置。
  2808df:	c1 ff 08             	sar    $0x8,%edi
		limit /=0x1000;
	}
	sd->limit_low=limit&0xffff;
	sd->base_low=base &0xffff;
	sd->base_mid=(base>>16)&0xff;
	sd->access_right=access&0xff;
  2808e2:	88 48 05             	mov    %cl,0x5(%eax)
	sd->limit_high=((limit>>16)&0x0f)|((access>>8)&0xf0);//低４位是limt的高位，高４位是访问的权限设置。
  2808e5:	89 f9                	mov    %edi,%ecx
	if(limit>0xffff)
	{
		access|=0x8000;
		limit /=0x1000;
	}
	sd->limit_low=limit&0xffff;
  2808e7:	66 89 10             	mov    %dx,(%eax)
	sd->base_low=base &0xffff;
	sd->base_mid=(base>>16)&0xff;
	sd->access_right=access&0xff;
	sd->limit_high=((limit>>16)&0x0f)|((access>>8)&0xf0);//低４位是limt的高位，高４位是访问的权限设置。
  2808ea:	83 e1 f0             	and    $0xfffffff0,%ecx
  2808ed:	c1 ea 10             	shr    $0x10,%edx
	{
		access|=0x8000;
		limit /=0x1000;
	}
	sd->limit_low=limit&0xffff;
	sd->base_low=base &0xffff;
  2808f0:	66 89 58 02          	mov    %bx,0x2(%eax)
	sd->base_mid=(base>>16)&0xff;
	sd->access_right=access&0xff;
	sd->limit_high=((limit>>16)&0x0f)|((access>>8)&0xf0);//低４位是limt的高位，高４位是访问的权限设置。
  2808f4:	09 d1                	or     %edx,%ecx
	sd->base_high=(base>>24)&0xff;
  2808f6:	c1 eb 18             	shr    $0x18,%ebx
	}
	sd->limit_low=limit&0xffff;
	sd->base_low=base &0xffff;
	sd->base_mid=(base>>16)&0xff;
	sd->access_right=access&0xff;
	sd->limit_high=((limit>>16)&0x0f)|((access>>8)&0xf0);//低４位是limt的高位，高４位是访问的权限设置。
  2808f9:	88 48 06             	mov    %cl,0x6(%eax)
	sd->base_high=(base>>24)&0xff;
  2808fc:	88 58 07             	mov    %bl,0x7(%eax)

}
  2808ff:	5b                   	pop    %ebx
  280900:	5e                   	pop    %esi
  280901:	5f                   	pop    %edi
  280902:	5d                   	pop    %ebp
  280903:	c3                   	ret    

00280904 <setidt>:

void setidt(struct IDT *gd,int offset,int selector,int access)//gd: gate describe
{
  280904:	55                   	push   %ebp
  280905:	89 e5                	mov    %esp,%ebp
  280907:	8b 45 08             	mov    0x8(%ebp),%eax
  28090a:	8b 4d 0c             	mov    0xc(%ebp),%ecx
  28090d:	8b 55 14             	mov    0x14(%ebp),%edx
	//idt中有32位的offset address
	gd->offset_low=offset & 0xffff;
  280910:	66 89 08             	mov    %cx,(%eax)
	gd->offset_high=(offset>>16)&0xffff;
  280913:	c1 e9 10             	shr    $0x10,%ecx
  280916:	66 89 48 06          	mov    %cx,0x6(%eax)

	//16位的selector决定了base address
	gd->selector=selector;
  28091a:	8b 4d 10             	mov    0x10(%ebp),%ecx

	gd->dw_count=(access>>8)&0xff;
	gd->access_right=(char)(access&0xff);//晕倒啊，是不是啊，天啊，访问权限是一个非常重要的量，错一点都不行的
  28091d:	88 50 05             	mov    %dl,0x5(%eax)
	//idt中有32位的offset address
	gd->offset_low=offset & 0xffff;
	gd->offset_high=(offset>>16)&0xffff;

	//16位的selector决定了base address
	gd->selector=selector;
  280920:	66 89 48 02          	mov    %cx,0x2(%eax)

	gd->dw_count=(access>>8)&0xff;
  280924:	89 d1                	mov    %edx,%ecx
  280926:	c1 f9 08             	sar    $0x8,%ecx
  280929:	88 48 04             	mov    %cl,0x4(%eax)
	gd->access_right=(char)(access&0xff);//晕倒啊，是不是啊，天啊，访问权限是一个非常重要的量，错一点都不行的


}
  28092c:	5d                   	pop    %ebp
  28092d:	c3                   	ret    

0028092e <init_gdtidt>:



void  init_gdtidt()
{
  28092e:	55                   	push   %ebp
  28092f:	89 e5                	mov    %esp,%ebp
  280931:	53                   	push   %ebx
  280932:	53                   	push   %ebx
  280933:	bb 00 00 27 00       	mov    $0x270000,%ebx
	struct GDT *gdt=(struct GDT *)(0x00270000);
	struct IDT *idt=(struct IDT *)(0x0026f800);
	int i;
	for(i=0;i<8192;i++)
	{
		setgdt(gdt+i,0,0,0);
  280938:	6a 00                	push   $0x0
  28093a:	6a 00                	push   $0x0
  28093c:	6a 00                	push   $0x0
  28093e:	53                   	push   %ebx
  28093f:	83 c3 08             	add    $0x8,%ebx
  280942:	e8 69 ff ff ff       	call   2808b0 <setgdt>
void  init_gdtidt()
{
	struct GDT *gdt=(struct GDT *)(0x00270000);
	struct IDT *idt=(struct IDT *)(0x0026f800);
	int i;
	for(i=0;i<8192;i++)
  280947:	83 c4 10             	add    $0x10,%esp
  28094a:	81 fb 00 00 28 00    	cmp    $0x280000,%ebx
  280950:	75 e6                	jne    280938 <init_gdtidt+0xa>
	{
		setgdt(gdt+i,0,0,0);
	}
	setgdt(gdt+1,0xffffffff   ,0x00000000,0x4092);//entry.s main.c data 4GB空间的数据都能访问
  280952:	68 92 40 00 00       	push   $0x4092
  280957:	6a 00                	push   $0x0
  280959:	6a ff                	push   $0xffffffff
  28095b:	68 08 00 27 00       	push   $0x270008
  280960:	e8 4b ff ff ff       	call   2808b0 <setgdt>
	setgdt(gdt+2,0x000fffff   ,0x00000000,0x409a);//entry.S code
  280965:	68 9a 40 00 00       	push   $0x409a
  28096a:	6a 00                	push   $0x0
  28096c:	68 ff ff 0f 00       	push   $0xfffff
  280971:	68 10 00 27 00       	push   $0x270010
  280976:	e8 35 ff ff ff       	call   2808b0 <setgdt>
	setgdt(gdt+3,0x000fffff   ,0x00280000,0x409a);  //main.c code　 0x7ffff=512kB
  28097b:	83 c4 20             	add    $0x20,%esp
  28097e:	68 9a 40 00 00       	push   $0x409a
  280983:	68 00 00 28 00       	push   $0x280000
  280988:	68 ff ff 0f 00       	push   $0xfffff
  28098d:	68 18 00 27 00       	push   $0x270018
  280992:	e8 19 ff ff ff       	call   2808b0 <setgdt>

	load_gdtr(0xfff,0X00270000);//this is right
  280997:	5a                   	pop    %edx
  280998:	59                   	pop    %ecx
  280999:	68 00 00 27 00       	push   $0x270000
  28099e:	68 ff 0f 00 00       	push   $0xfff
  2809a3:	e8 f9 01 00 00       	call   280ba1 <load_gdtr>
  2809a8:	83 c4 10             	add    $0x10,%esp
  2809ab:	31 c0                	xor    %eax,%eax
}

void setidt(struct IDT *gd,int offset,int selector,int access)//gd: gate describe
{
	//idt中有32位的offset address
	gd->offset_low=offset & 0xffff;
  2809ad:	66 c7 80 00 f8 26 00 	movw   $0x0,0x26f800(%eax)
  2809b4:	00 00 
  2809b6:	83 c0 08             	add    $0x8,%eax
	gd->offset_high=(offset>>16)&0xffff;
  2809b9:	66 c7 80 fe f7 26 00 	movw   $0x0,0x26f7fe(%eax)
  2809c0:	00 00 

	//16位的selector决定了base address
	gd->selector=selector;
  2809c2:	66 c7 80 fa f7 26 00 	movw   $0x0,0x26f7fa(%eax)
  2809c9:	00 00 

	gd->dw_count=(access>>8)&0xff;
  2809cb:	c6 80 fc f7 26 00 00 	movb   $0x0,0x26f7fc(%eax)
	gd->access_right=(char)(access&0xff);//晕倒啊，是不是啊，天啊，访问权限是一个非常重要的量，错一点都不行的
  2809d2:	c6 80 fd f7 26 00 00 	movb   $0x0,0x26f7fd(%eax)
	setgdt(gdt+2,0x000fffff   ,0x00000000,0x409a);//entry.S code
	setgdt(gdt+3,0x000fffff   ,0x00280000,0x409a);  //main.c code　 0x7ffff=512kB

	load_gdtr(0xfff,0X00270000);//this is right

	for(i=0;i<256;i++)
  2809d9:	3d 00 08 00 00       	cmp    $0x800,%eax
  2809de:	75 cd                	jne    2809ad <init_gdtidt+0x7f>

void setidt(struct IDT *gd,int offset,int selector,int access)//gd: gate describe
{
	//idt中有32位的offset address
	gd->offset_low=offset & 0xffff;
	gd->offset_high=(offset>>16)&0xffff;
  2809e0:	ba 50 0b 28 00       	mov    $0x280b50,%edx
  2809e5:	66 31 c0             	xor    %ax,%ax
  2809e8:	c1 ea 10             	shr    $0x10,%edx
}

void setidt(struct IDT *gd,int offset,int selector,int access)//gd: gate describe
{
	//idt中有32位的offset address
	gd->offset_low=offset & 0xffff;
  2809eb:	b9 50 0b 28 00       	mov    $0x280b50,%ecx
  2809f0:	66 89 88 00 f8 26 00 	mov    %cx,0x26f800(%eax)
  2809f7:	83 c0 08             	add    $0x8,%eax
	gd->offset_high=(offset>>16)&0xffff;
  2809fa:	66 89 90 fe f7 26 00 	mov    %dx,0x26f7fe(%eax)

	//16位的selector决定了base address
	gd->selector=selector;
  280a01:	66 c7 80 fa f7 26 00 	movw   $0x18,0x26f7fa(%eax)
  280a08:	18 00 

	gd->dw_count=(access>>8)&0xff;
  280a0a:	c6 80 fc f7 26 00 00 	movb   $0x0,0x26f7fc(%eax)
	gd->access_right=(char)(access&0xff);//晕倒啊，是不是啊，天啊，访问权限是一个非常重要的量，错一点都不行的
  280a11:	c6 80 fd f7 26 00 8e 	movb   $0x8e,0x26f7fd(%eax)
	for(i=0;i<256;i++)
	{
		setidt(idt+i,0,0,0);
	}

	for(i=0;i<256;i++)
  280a18:	3d 00 08 00 00       	cmp    $0x800,%eax
  280a1d:	75 d1                	jne    2809f0 <init_gdtidt+0xc2>
	{
		setidt(idt+i,(int)asm_inthandler21,3*8,0x008e);//用printdebug显示之后，证明这一部分是写进去了

	}
	setidt(idt+0x21,(int)asm_inthandler21-0x280000,3*8,0x008e);//用printdebug显示之后，证明这一部分是写进去了
  280a1f:	b8 50 0b 00 00       	mov    $0xb50,%eax
}

void setidt(struct IDT *gd,int offset,int selector,int access)//gd: gate describe
{
	//idt中有32位的offset address
	gd->offset_low=offset & 0xffff;
  280a24:	66 a3 08 f9 26 00    	mov    %ax,0x26f908
	gd->offset_high=(offset>>16)&0xffff;
  280a2a:	c1 e8 10             	shr    $0x10,%eax
  280a2d:	66 a3 0e f9 26 00    	mov    %ax,0x26f90e
	{
		setidt(idt+i,(int)asm_inthandler21,3*8,0x008e);//用printdebug显示之后，证明这一部分是写进去了

	}
	setidt(idt+0x21,(int)asm_inthandler21-0x280000,3*8,0x008e);//用printdebug显示之后，证明这一部分是写进去了
	setidt(idt+0x27,(int)asm_inthandler27-0x280000,3*8,0x008e);//
  280a33:	b8 6b 0b 00 00       	mov    $0xb6b,%eax
}

void setidt(struct IDT *gd,int offset,int selector,int access)//gd: gate describe
{
	//idt中有32位的offset address
	gd->offset_low=offset & 0xffff;
  280a38:	66 a3 38 f9 26 00    	mov    %ax,0x26f938
	gd->offset_high=(offset>>16)&0xffff;
  280a3e:	c1 e8 10             	shr    $0x10,%eax
  280a41:	66 a3 3e f9 26 00    	mov    %ax,0x26f93e
		setidt(idt+i,(int)asm_inthandler21,3*8,0x008e);//用printdebug显示之后，证明这一部分是写进去了

	}
	setidt(idt+0x21,(int)asm_inthandler21-0x280000,3*8,0x008e);//用printdebug显示之后，证明这一部分是写进去了
	setidt(idt+0x27,(int)asm_inthandler27-0x280000,3*8,0x008e);//
	setidt(idt+0x2c,(int)asm_inthandler2c-0x280000,3*8,0x008e);
  280a47:	b8 86 0b 00 00       	mov    $0xb86,%eax
}

void setidt(struct IDT *gd,int offset,int selector,int access)//gd: gate describe
{
	//idt中有32位的offset address
	gd->offset_low=offset & 0xffff;
  280a4c:	66 a3 60 f9 26 00    	mov    %ax,0x26f960
	gd->offset_high=(offset>>16)&0xffff;
  280a52:	c1 e8 10             	shr    $0x10,%eax
  280a55:	66 a3 66 f9 26 00    	mov    %ax,0x26f966

	//16位的selector决定了base address
	gd->selector=selector;
  280a5b:	66 c7 05 0a f9 26 00 	movw   $0x18,0x26f90a
  280a62:	18 00 

	gd->dw_count=(access>>8)&0xff;
  280a64:	c6 05 0c f9 26 00 00 	movb   $0x0,0x26f90c
	gd->access_right=(char)(access&0xff);//晕倒啊，是不是啊，天啊，访问权限是一个非常重要的量，错一点都不行的
  280a6b:	c6 05 0d f9 26 00 8e 	movb   $0x8e,0x26f90d
	//idt中有32位的offset address
	gd->offset_low=offset & 0xffff;
	gd->offset_high=(offset>>16)&0xffff;

	//16位的selector决定了base address
	gd->selector=selector;
  280a72:	66 c7 05 3a f9 26 00 	movw   $0x18,0x26f93a
  280a79:	18 00 

	gd->dw_count=(access>>8)&0xff;
  280a7b:	c6 05 3c f9 26 00 00 	movb   $0x0,0x26f93c
	gd->access_right=(char)(access&0xff);//晕倒啊，是不是啊，天啊，访问权限是一个非常重要的量，错一点都不行的
  280a82:	c6 05 3d f9 26 00 8e 	movb   $0x8e,0x26f93d
	//idt中有32位的offset address
	gd->offset_low=offset & 0xffff;
	gd->offset_high=(offset>>16)&0xffff;

	//16位的selector决定了base address
	gd->selector=selector;
  280a89:	66 c7 05 62 f9 26 00 	movw   $0x18,0x26f962
  280a90:	18 00 

	gd->dw_count=(access>>8)&0xff;
  280a92:	c6 05 64 f9 26 00 00 	movb   $0x0,0x26f964
	gd->access_right=(char)(access&0xff);//晕倒啊，是不是啊，天啊，访问权限是一个非常重要的量，错一点都不行的
  280a99:	c6 05 65 f9 26 00 8e 	movb   $0x8e,0x26f965

	}
	setidt(idt+0x21,(int)asm_inthandler21-0x280000,3*8,0x008e);//用printdebug显示之后，证明这一部分是写进去了
	setidt(idt+0x27,(int)asm_inthandler27-0x280000,3*8,0x008e);//
	setidt(idt+0x2c,(int)asm_inthandler2c-0x280000,3*8,0x008e);
	load_idtr(0x7ff,0x0026f800);//this is right
  280aa0:	50                   	push   %eax
  280aa1:	50                   	push   %eax
  280aa2:	68 00 f8 26 00       	push   $0x26f800
  280aa7:	68 ff 07 00 00       	push   $0x7ff
  280aac:	e8 00 01 00 00       	call   280bb1 <load_idtr>
  280ab1:	83 c4 10             	add    $0x10,%esp

	return;

}
  280ab4:	8b 5d fc             	mov    -0x4(%ebp),%ebx
  280ab7:	c9                   	leave  
  280ab8:	c3                   	ret    
  280ab9:	66 90                	xchg   %ax,%ax
  280abb:	90                   	nop

00280abc <init_pic>:
#include "header.h"

extern struct boot_info *bootp;
void init_pic()
{
  280abc:	55                   	push   %ebp
// out:write a data to a port
static __inline void
outb(int port, uint8_t data)
{
  //data是变量0%0 , port是变量word１%w1
	__asm __volatile("outb %0,%w1" : : "a" (data), "d" (port));
  280abd:	ba 21 00 00 00       	mov    $0x21,%edx
  280ac2:	89 e5                	mov    %esp,%ebp
  280ac4:	b0 ff                	mov    $0xff,%al
  280ac6:	ee                   	out    %al,(%dx)
  280ac7:	b2 a1                	mov    $0xa1,%dl
  280ac9:	ee                   	out    %al,(%dx)
  280aca:	b0 11                	mov    $0x11,%al
  280acc:	b2 20                	mov    $0x20,%dl
  280ace:	ee                   	out    %al,(%dx)
  280acf:	b0 20                	mov    $0x20,%al
  280ad1:	b2 21                	mov    $0x21,%dl
  280ad3:	ee                   	out    %al,(%dx)
  280ad4:	b0 04                	mov    $0x4,%al
  280ad6:	ee                   	out    %al,(%dx)
  280ad7:	b0 01                	mov    $0x1,%al
  280ad9:	ee                   	out    %al,(%dx)
  280ada:	b0 11                	mov    $0x11,%al
  280adc:	b2 a0                	mov    $0xa0,%dl
  280ade:	ee                   	out    %al,(%dx)
  280adf:	b0 28                	mov    $0x28,%al
  280ae1:	b2 a1                	mov    $0xa1,%dl
  280ae3:	ee                   	out    %al,(%dx)
  280ae4:	b0 02                	mov    $0x2,%al
  280ae6:	ee                   	out    %al,(%dx)
  280ae7:	b0 01                	mov    $0x1,%al
  280ae9:	ee                   	out    %al,(%dx)
  280aea:	b0 fb                	mov    $0xfb,%al
  280aec:	b2 21                	mov    $0x21,%dl
  280aee:	ee                   	out    %al,(%dx)
  280aef:	b0 ff                	mov    $0xff,%al
  280af1:	b2 a1                	mov    $0xa1,%dl
  280af3:	ee                   	out    %al,(%dx)
这是因为int 0x00-0x1f不能用于irq,因为这２０个Int是留给系统的，是给mi（not mask interrupt）用的。

所以cpu发现是产生了int 0到int0x1f时，就知道是非常重要的中断产生了，是不可mask的，一定要执行的。

   */
}
  280af4:	5d                   	pop    %ebp
  280af5:	c3                   	ret    

00280af6 <inthandler21>:
#define PORT_KEYDAT	0x0060
struct FIFO8 keyfifo;

//interrupt service procedure for keyboard
void inthandler21(int *esp)
{
  280af6:	55                   	push   %ebp
  280af7:	ba 20 00 00 00       	mov    $0x20,%edx
  280afc:	89 e5                	mov    %esp,%ebp
  280afe:	b0 61                	mov    $0x61,%al
  280b00:	83 ec 10             	sub    $0x10,%esp
  280b03:	ee                   	out    %al,(%dx)
static __inline uint8_t
inb(int port)
{
  //read a byte from port
	uint8_t data;
	__asm __volatile("inb %w1,%0" : "=a" (data) : "d" (port));
  280b04:	b2 60                	mov    $0x60,%dl
  280b06:	ec                   	in     (%dx),%al
  unsigned char data;
  io_out8(PIC0_OCW2, 0x61);
  data=io_in8(PORT_KEYDAT);
  fifo8_put(&keyfifo, data);
  280b07:	0f b6 c0             	movzbl %al,%eax
  280b0a:	50                   	push   %eax
  280b0b:	68 28 2f 28 00       	push   $0x282f28
  280b10:	e8 da 00 00 00       	call   280bef <fifo8_put>
  280b15:	83 c4 10             	add    $0x10,%esp
  return;  
}
  280b18:	c9                   	leave  
  280b19:	c3                   	ret    

00280b1a <inthandler2c>:

struct FIFO8 mousefifo;
void inthandler2c(int *esp)
{
  280b1a:	55                   	push   %ebp
// out:write a data to a port
static __inline void
outb(int port, uint8_t data)
{
  //data是变量0%0 , port是变量word１%w1
	__asm __volatile("outb %0,%w1" : : "a" (data), "d" (port));
  280b1b:	ba a0 00 00 00       	mov    $0xa0,%edx
  280b20:	89 e5                	mov    %esp,%ebp
  280b22:	b0 64                	mov    $0x64,%al
  280b24:	83 ec 10             	sub    $0x10,%esp
  280b27:	ee                   	out    %al,(%dx)
  280b28:	b0 62                	mov    $0x62,%al
  280b2a:	b2 20                	mov    $0x20,%dl
  280b2c:	ee                   	out    %al,(%dx)
static __inline uint8_t
inb(int port)
{
  //read a byte from port
	uint8_t data;
	__asm __volatile("inb %w1,%0" : "=a" (data) : "d" (port));
  280b2d:	b2 60                	mov    $0x60,%dl
  280b2f:	ec                   	in     (%dx),%al
  unsigned char data;
  io_out8(PIC1_OCW2, 0x64);
  io_out8(PIC0_OCW2, 0x62);
  data=io_in8(PORT_KEYDAT);
  fifo8_put(&mousefifo, data);
  280b30:	0f b6 c0             	movzbl %al,%eax
  280b33:	50                   	push   %eax
  280b34:	68 40 2f 28 00       	push   $0x282f40
  280b39:	e8 b1 00 00 00       	call   280bef <fifo8_put>
  280b3e:	83 c4 10             	add    $0x10,%esp
  return;    
}
  280b41:	c9                   	leave  
  280b42:	c3                   	ret    

00280b43 <inthandler27>:

void inthandler27(int *esp)
{
  280b43:	55                   	push   %ebp
// out:write a data to a port
static __inline void
outb(int port, uint8_t data)
{
  //data是变量0%0 , port是变量word１%w1
	__asm __volatile("outb %0,%w1" : : "a" (data), "d" (port));
  280b44:	ba 20 00 00 00       	mov    $0x20,%edx
  280b49:	89 e5                	mov    %esp,%ebp
  280b4b:	b0 67                	mov    $0x67,%al
  280b4d:	ee                   	out    %al,(%dx)
  io_out8(PIC0_OCW2, 0x67);
  return;
}
  280b4e:	5d                   	pop    %ebp
  280b4f:	c3                   	ret    

00280b50 <asm_inthandler21>:
.global load_gdtr 
.global load_idtr
.global io_stihlt
.code32
asm_inthandler21:
  pushw %es
  280b50:	66 06                	pushw  %es
  pushw %ds
  280b52:	66 1e                	pushw  %ds
  pushal
  280b54:	60                   	pusha  
  movl %esp,%eax
  280b55:	89 e0                	mov    %esp,%eax
  pushl %eax
  280b57:	50                   	push   %eax
  movw %ss,%ax
  280b58:	66 8c d0             	mov    %ss,%ax
  movw %ax,%ds
  280b5b:	8e d8                	mov    %eax,%ds
  movw %ax,%es
  280b5d:	8e c0                	mov    %eax,%es
  call inthandler21
  280b5f:	e8 92 ff ff ff       	call   280af6 <inthandler21>
  popl %eax
  280b64:	58                   	pop    %eax
  popal
  280b65:	61                   	popa   
  popw %ds
  280b66:	66 1f                	popw   %ds
  popW %es
  280b68:	66 07                	popw   %es
  iret
  280b6a:	cf                   	iret   

00280b6b <asm_inthandler27>:

asm_inthandler27:
  pushw %es
  280b6b:	66 06                	pushw  %es
  pushw %ds
  280b6d:	66 1e                	pushw  %ds
  pushal
  280b6f:	60                   	pusha  
  movl %esp,%eax
  280b70:	89 e0                	mov    %esp,%eax
  pushl %eax
  280b72:	50                   	push   %eax
  movw %ss,%ax
  280b73:	66 8c d0             	mov    %ss,%ax
  movw %ax,%ds
  280b76:	8e d8                	mov    %eax,%ds
  movw %ax,%es
  280b78:	8e c0                	mov    %eax,%es
  call inthandler27
  280b7a:	e8 c4 ff ff ff       	call   280b43 <inthandler27>
  popl %eax
  280b7f:	58                   	pop    %eax
  popal
  280b80:	61                   	popa   
  popw %ds
  280b81:	66 1f                	popw   %ds
  popW %es
  280b83:	66 07                	popw   %es
  iret
  280b85:	cf                   	iret   

00280b86 <asm_inthandler2c>:

asm_inthandler2c:
  pushw %es
  280b86:	66 06                	pushw  %es
  pushw %ds
  280b88:	66 1e                	pushw  %ds
  pushal
  280b8a:	60                   	pusha  
  movl %esp,%eax
  280b8b:	89 e0                	mov    %esp,%eax
  pushl %eax
  280b8d:	50                   	push   %eax
  movw %ss,%ax
  280b8e:	66 8c d0             	mov    %ss,%ax
  movw %ax,%ds
  280b91:	8e d8                	mov    %eax,%ds
  movw %ax,%es
  280b93:	8e c0                	mov    %eax,%es
  call inthandler2c
  280b95:	e8 80 ff ff ff       	call   280b1a <inthandler2c>
  popl %eax
  280b9a:	58                   	pop    %eax
  popal
  280b9b:	61                   	popa   
  popw %ds
  280b9c:	66 1f                	popw   %ds
  popW %es
  280b9e:	66 07                	popw   %es
  iret
  280ba0:	cf                   	iret   

00280ba1 <load_gdtr>:

load_gdtr:		#; void load_gdtr(int limit, int addr);
  mov 4(%esp) ,%ax
  280ba1:	66 8b 44 24 04       	mov    0x4(%esp),%ax
  mov %ax,6(%esp)
  280ba6:	66 89 44 24 06       	mov    %ax,0x6(%esp)
  lgdt 6(%esp)
  280bab:	0f 01 54 24 06       	lgdtl  0x6(%esp)
  ret
  280bb0:	c3                   	ret    

00280bb1 <load_idtr>:

load_idtr:		#; void load_idtr(int limit, int addr);
  mov 4(%esp) ,%ax
  280bb1:	66 8b 44 24 04       	mov    0x4(%esp),%ax
  mov %ax,6(%esp)
  280bb6:	66 89 44 24 06       	mov    %ax,0x6(%esp)
  lidt 6(%esp)
  280bbb:	0f 01 5c 24 06       	lidtl  0x6(%esp)
  ret
  280bc0:	c3                   	ret    

00280bc1 <io_stihlt>:

io_stihlt:
  sti
  280bc1:	fb                   	sti    
  hlt
  280bc2:	f4                   	hlt    
  ret
  280bc3:	c3                   	ret    

00280bc4 <fifo8_init>:
#include "header.h"

#define FLAGS_OVERRUN		0x0001

void fifo8_init(struct FIFO8 *fifo, int size, unsigned char *buf)
{
  280bc4:	55                   	push   %ebp
  280bc5:	89 e5                	mov    %esp,%ebp
  280bc7:	8b 45 08             	mov    0x8(%ebp),%eax
  280bca:	8b 55 0c             	mov    0xc(%ebp),%edx
	fifo->size = size;
	fifo->buf = buf;
  280bcd:	8b 4d 10             	mov    0x10(%ebp),%ecx
	fifo->free = size; 
	fifo->flags = 0;
  280bd0:	c7 40 14 00 00 00 00 	movl   $0x0,0x14(%eax)

#define FLAGS_OVERRUN		0x0001

void fifo8_init(struct FIFO8 *fifo, int size, unsigned char *buf)
{
	fifo->size = size;
  280bd7:	89 50 0c             	mov    %edx,0xc(%eax)
	fifo->buf = buf;
  280bda:	89 08                	mov    %ecx,(%eax)
	fifo->free = size; 
  280bdc:	89 50 10             	mov    %edx,0x10(%eax)
	fifo->flags = 0;
	fifo->p = 0; /* next write */
  280bdf:	c7 40 04 00 00 00 00 	movl   $0x0,0x4(%eax)
	fifo->q = 0; /* next read */
  280be6:	c7 40 08 00 00 00 00 	movl   $0x0,0x8(%eax)
	return;
}
  280bed:	5d                   	pop    %ebp
  280bee:	c3                   	ret    

00280bef <fifo8_put>:

int fifo8_put(struct FIFO8 *fifo, unsigned char data)
{
  280bef:	55                   	push   %ebp
  280bf0:	89 e5                	mov    %esp,%ebp
  280bf2:	8b 45 08             	mov    0x8(%ebp),%eax
  280bf5:	53                   	push   %ebx
  280bf6:	8b 5d 0c             	mov    0xc(%ebp),%ebx
	if (fifo->free == 0) {
  280bf9:	83 78 10 00          	cmpl   $0x0,0x10(%eax)
  280bfd:	75 09                	jne    280c08 <fifo8_put+0x19>
		/* no free space */
		fifo->flags |= FLAGS_OVERRUN;
  280bff:	83 48 14 01          	orl    $0x1,0x14(%eax)
		return -1;
  280c03:	83 c8 ff             	or     $0xffffffff,%eax
  280c06:	eb 22                	jmp    280c2a <fifo8_put+0x3b>
	}
	fifo->buf[fifo->p] = data;
  280c08:	8b 50 04             	mov    0x4(%eax),%edx
  280c0b:	8b 08                	mov    (%eax),%ecx
  280c0d:	88 1c 11             	mov    %bl,(%ecx,%edx,1)
	fifo->p++;
  280c10:	8b 48 04             	mov    0x4(%eax),%ecx
  280c13:	8d 51 01             	lea    0x1(%ecx),%edx
	if (fifo->p == fifo->size) {
  280c16:	3b 50 0c             	cmp    0xc(%eax),%edx
		/* no free space */
		fifo->flags |= FLAGS_OVERRUN;
		return -1;
	}
	fifo->buf[fifo->p] = data;
	fifo->p++;
  280c19:	89 50 04             	mov    %edx,0x4(%eax)
	if (fifo->p == fifo->size) {
  280c1c:	75 07                	jne    280c25 <fifo8_put+0x36>
		fifo->p = 0;
  280c1e:	c7 40 04 00 00 00 00 	movl   $0x0,0x4(%eax)
	}
	fifo->free--;
  280c25:	ff 48 10             	decl   0x10(%eax)
	return 0;
  280c28:	31 c0                	xor    %eax,%eax
}
  280c2a:	5b                   	pop    %ebx
  280c2b:	5d                   	pop    %ebp
  280c2c:	c3                   	ret    

00280c2d <fifo8_get>:

int fifo8_get(struct FIFO8 *fifo)
{
  280c2d:	55                   	push   %ebp
  280c2e:	89 e5                	mov    %esp,%ebp
  280c30:	8b 55 08             	mov    0x8(%ebp),%edx
  280c33:	57                   	push   %edi
  280c34:	56                   	push   %esi
  280c35:	53                   	push   %ebx
	int data;
	if (fifo->free == fifo->size) {
  280c36:	8b 5a 10             	mov    0x10(%edx),%ebx
  280c39:	8b 7a 0c             	mov    0xc(%edx),%edi
  280c3c:	39 fb                	cmp    %edi,%ebx
  280c3e:	74 1a                	je     280c5a <fifo8_get+0x2d>
		/* if buffer empty, return -1 */
		return -1;
	}
	data = fifo->buf[fifo->q];
  280c40:	8b 72 08             	mov    0x8(%edx),%esi
	fifo->q++;
  280c43:	31 c9                	xor    %ecx,%ecx
	int data;
	if (fifo->free == fifo->size) {
		/* if buffer empty, return -1 */
		return -1;
	}
	data = fifo->buf[fifo->q];
  280c45:	8b 02                	mov    (%edx),%eax
  280c47:	0f b6 04 30          	movzbl (%eax,%esi,1),%eax
	fifo->q++;
  280c4b:	46                   	inc    %esi
  280c4c:	39 fe                	cmp    %edi,%esi
  280c4e:	0f 45 ce             	cmovne %esi,%ecx
	if (fifo->q == fifo->size) {
		fifo->q = 0;
	}
	fifo->free++;
  280c51:	43                   	inc    %ebx
	if (fifo->free == fifo->size) {
		/* if buffer empty, return -1 */
		return -1;
	}
	data = fifo->buf[fifo->q];
	fifo->q++;
  280c52:	89 4a 08             	mov    %ecx,0x8(%edx)
	if (fifo->q == fifo->size) {
		fifo->q = 0;
	}
	fifo->free++;
  280c55:	89 5a 10             	mov    %ebx,0x10(%edx)
	return data;
  280c58:	eb 03                	jmp    280c5d <fifo8_get+0x30>
int fifo8_get(struct FIFO8 *fifo)
{
	int data;
	if (fifo->free == fifo->size) {
		/* if buffer empty, return -1 */
		return -1;
  280c5a:	83 c8 ff             	or     $0xffffffff,%eax
	if (fifo->q == fifo->size) {
		fifo->q = 0;
	}
	fifo->free++;
	return data;
}
  280c5d:	5b                   	pop    %ebx
  280c5e:	5e                   	pop    %esi
  280c5f:	5f                   	pop    %edi
  280c60:	5d                   	pop    %ebp
  280c61:	c3                   	ret    

00280c62 <fifo8_status>:

int fifo8_status(struct FIFO8 *fifo)
/* return how much data in buffer */
{
  280c62:	55                   	push   %ebp
  280c63:	89 e5                	mov    %esp,%ebp
  280c65:	8b 55 08             	mov    0x8(%ebp),%edx
	return fifo->size - fifo->free;
}
  280c68:	5d                   	pop    %ebp
}

int fifo8_status(struct FIFO8 *fifo)
/* return how much data in buffer */
{
	return fifo->size - fifo->free;
  280c69:	8b 42 0c             	mov    0xc(%edx),%eax
  280c6c:	2b 42 10             	sub    0x10(%edx),%eax
}
  280c6f:	c3                   	ret    

00280c70 <enable_mouse>:
#define KEYCMD_SENDTO_MOUSE		0xd4
#define MOUSECMD_ENABLE			0xf4
unsigned char mousepic[256];     //mouse logo buffer

void enable_mouse(struct boot_info *bootp)
{
  280c70:	55                   	push   %ebp
  280c71:	89 e5                	mov    %esp,%ebp
  280c73:	53                   	push   %ebx
  280c74:	83 ec 0c             	sub    $0xc,%esp
  280c77:	8b 5d 08             	mov    0x8(%ebp),%ebx
	/* 儅僂僗桳岠 */
	init_mouse(mousepic,0);//7　means background color:white
  280c7a:	6a 00                	push   $0x0
  280c7c:	68 68 2f 28 00       	push   $0x282f68
  280c81:	e8 92 f8 ff ff       	call   280518 <init_mouse>
	wait_KBC_sendready();
  280c86:	e8 55 01 00 00       	call   280de0 <wait_KBC_sendready>
  280c8b:	ba 64 00 00 00       	mov    $0x64,%edx
  280c90:	b0 d4                	mov    $0xd4,%al
  280c92:	ee                   	out    %al,(%dx)
	io_out8(PORT_KEYCMD, KEYCMD_SENDTO_MOUSE);
	wait_KBC_sendready();
  280c93:	e8 48 01 00 00       	call   280de0 <wait_KBC_sendready>
  280c98:	ba 60 00 00 00       	mov    $0x60,%edx
  280c9d:	b0 f4                	mov    $0xf4,%al
  280c9f:	ee                   	out    %al,(%dx)
	io_out8(PORT_KEYDAT, MOUSECMD_ENABLE);
	glob.phase=-1;
	glob.x=60;
	glob.y=60;
	display_mouse(bootp->vram,bootp->xsize,16,16,60,60,mousepic,16);
  280ca0:	6a 10                	push   $0x10
  280ca2:	68 68 2f 28 00       	push   $0x282f68
  280ca7:	6a 3c                	push   $0x3c
  280ca9:	6a 3c                	push   $0x3c
  280cab:	6a 10                	push   $0x10
  280cad:	6a 10                	push   $0x10
  280caf:	0f bf 43 04          	movswl 0x4(%ebx),%eax
	init_mouse(mousepic,0);//7　means background color:white
	wait_KBC_sendready();
	io_out8(PORT_KEYCMD, KEYCMD_SENDTO_MOUSE);
	wait_KBC_sendready();
	io_out8(PORT_KEYDAT, MOUSECMD_ENABLE);
	glob.phase=-1;
  280cb3:	c6 05 5b 2f 28 00 ff 	movb   $0xff,0x282f5b
	glob.x=60;
  280cba:	c7 05 5c 2f 28 00 3c 	movl   $0x3c,0x282f5c
  280cc1:	00 00 00 
	glob.y=60;
	display_mouse(bootp->vram,bootp->xsize,16,16,60,60,mousepic,16);
  280cc4:	50                   	push   %eax
  280cc5:	ff 73 08             	pushl  0x8(%ebx)
	io_out8(PORT_KEYCMD, KEYCMD_SENDTO_MOUSE);
	wait_KBC_sendready();
	io_out8(PORT_KEYDAT, MOUSECMD_ENABLE);
	glob.phase=-1;
	glob.x=60;
	glob.y=60;
  280cc8:	c7 05 60 2f 28 00 3c 	movl   $0x3c,0x282f60
  280ccf:	00 00 00 
	display_mouse(bootp->vram,bootp->xsize,16,16,60,60,mousepic,16);
  280cd2:	e8 91 f8 ff ff       	call   280568 <display_mouse>
  280cd7:	83 c4 30             	add    $0x30,%esp
	return; /* 偆傑偔偄偔偲ACK(0xfa)偑憲怣偝傟偰偔傞 */
}
  280cda:	8b 5d fc             	mov    -0x4(%ebp),%ebx
  280cdd:	c9                   	leave  
  280cde:	c3                   	ret    

00280cdf <mouse_move>:

void mouse_move(struct boot_info *bootp){
	boxfill8(bootp->vram,bootp->xsize,COL8_000000, glob.x,glob.y,glob.x+15,glob.y+15);//bg is black
  280cdf:	8b 15 60 2f 28 00    	mov    0x282f60,%edx
	glob.y=60;
	display_mouse(bootp->vram,bootp->xsize,16,16,60,60,mousepic,16);
	return; /* 偆傑偔偄偔偲ACK(0xfa)偑憲怣偝傟偰偔傞 */
}

void mouse_move(struct boot_info *bootp){
  280ce5:	55                   	push   %ebp
	boxfill8(bootp->vram,bootp->xsize,COL8_000000, glob.x,glob.y,glob.x+15,glob.y+15);//bg is black
  280ce6:	a1 5c 2f 28 00       	mov    0x282f5c,%eax
	glob.y=60;
	display_mouse(bootp->vram,bootp->xsize,16,16,60,60,mousepic,16);
	return; /* 偆傑偔偄偔偲ACK(0xfa)偑憲怣偝傟偰偔傞 */
}

void mouse_move(struct boot_info *bootp){
  280ceb:	89 e5                	mov    %esp,%ebp
  280ced:	56                   	push   %esi
  280cee:	53                   	push   %ebx
  280cef:	8b 5d 08             	mov    0x8(%ebp),%ebx
	boxfill8(bootp->vram,bootp->xsize,COL8_000000, glob.x,glob.y,glob.x+15,glob.y+15);//bg is black
  280cf2:	51                   	push   %ecx
  280cf3:	8d 4a 0f             	lea    0xf(%edx),%ecx
  280cf6:	51                   	push   %ecx
  280cf7:	8d 48 0f             	lea    0xf(%eax),%ecx
  280cfa:	51                   	push   %ecx
  280cfb:	52                   	push   %edx
  280cfc:	50                   	push   %eax
  280cfd:	6a 00                	push   $0x0
  280cff:	0f bf 43 04          	movswl 0x4(%ebx),%eax
  280d03:	50                   	push   %eax
  280d04:	ff 73 08             	pushl  0x8(%ebx)
  280d07:	e8 35 f6 ff ff       	call   280341 <boxfill8>
  280d0c:	0f b6 15 59 2f 28 00 	movzbl 0x282f59,%edx
	int i = glob.buf[1];
	if ((glob.buf[0] & 0x10) != 0 ) i |= 0xffffff00;
  280d13:	83 c4 20             	add    $0x20,%esp
  280d16:	a0 58 2f 28 00       	mov    0x282f58,%al
	return; /* 偆傑偔偄偔偲ACK(0xfa)偑憲怣偝傟偰偔傞 */
}

void mouse_move(struct boot_info *bootp){
	boxfill8(bootp->vram,bootp->xsize,COL8_000000, glob.x,glob.y,glob.x+15,glob.y+15);//bg is black
	int i = glob.buf[1];
  280d1b:	89 d1                	mov    %edx,%ecx
  280d1d:	81 c9 00 ff ff ff    	or     $0xffffff00,%ecx
  280d23:	a8 10                	test   $0x10,%al
  280d25:	0f 45 d1             	cmovne %ecx,%edx
  280d28:	0f b6 0d 5a 2f 28 00 	movzbl 0x282f5a,%ecx
	if ((glob.buf[0] & 0x10) != 0 ) i |= 0xffffff00;
	glob.x += i;
  280d2f:	03 15 5c 2f 28 00    	add    0x282f5c,%edx
	i = glob.buf[2];
  280d35:	89 ce                	mov    %ecx,%esi
  280d37:	81 ce 00 ff ff ff    	or     $0xffffff00,%esi
  280d3d:	a8 20                	test   $0x20,%al
	if ((glob.buf[0] & 0x20) != 0 ) i |= 0xffffff00;
	glob.y -= i;
  280d3f:	a1 60 2f 28 00       	mov    0x282f60,%eax
void mouse_move(struct boot_info *bootp){
	boxfill8(bootp->vram,bootp->xsize,COL8_000000, glob.x,glob.y,glob.x+15,glob.y+15);//bg is black
	int i = glob.buf[1];
	if ((glob.buf[0] & 0x10) != 0 ) i |= 0xffffff00;
	glob.x += i;
	i = glob.buf[2];
  280d44:	0f 45 ce             	cmovne %esi,%ecx

void mouse_move(struct boot_info *bootp){
	boxfill8(bootp->vram,bootp->xsize,COL8_000000, glob.x,glob.y,glob.x+15,glob.y+15);//bg is black
	int i = glob.buf[1];
	if ((glob.buf[0] & 0x10) != 0 ) i |= 0xffffff00;
	glob.x += i;
  280d47:	89 15 5c 2f 28 00    	mov    %edx,0x282f5c
	i = glob.buf[2];
	if ((glob.buf[0] & 0x20) != 0 ) i |= 0xffffff00;
	glob.y -= i;
  280d4d:	29 c8                	sub    %ecx,%eax
	if (glob.x<0) glob.x=0;
  280d4f:	85 d2                	test   %edx,%edx
	int i = glob.buf[1];
	if ((glob.buf[0] & 0x10) != 0 ) i |= 0xffffff00;
	glob.x += i;
	i = glob.buf[2];
	if ((glob.buf[0] & 0x20) != 0 ) i |= 0xffffff00;
	glob.y -= i;
  280d51:	a3 60 2f 28 00       	mov    %eax,0x282f60
	if (glob.x<0) glob.x=0;
  280d56:	79 0a                	jns    280d62 <mouse_move+0x83>
  280d58:	c7 05 5c 2f 28 00 00 	movl   $0x0,0x282f5c
  280d5f:	00 00 00 
	if (glob.y<0) glob.y=0;
  280d62:	85 c0                	test   %eax,%eax
  280d64:	79 0a                	jns    280d70 <mouse_move+0x91>
  280d66:	c7 05 60 2f 28 00 00 	movl   $0x0,0x282f60
  280d6d:	00 00 00 
	if (glob.x>bootp->xsize-16) glob.x=bootp->xsize-16;
  280d70:	0f bf 43 04          	movswl 0x4(%ebx),%eax
  280d74:	8d 50 f1             	lea    -0xf(%eax),%edx
  280d77:	3b 15 5c 2f 28 00    	cmp    0x282f5c,%edx
  280d7d:	7f 09                	jg     280d88 <mouse_move+0xa9>
  280d7f:	8d 50 f0             	lea    -0x10(%eax),%edx
  280d82:	89 15 5c 2f 28 00    	mov    %edx,0x282f5c
	if (glob.y>bootp->ysize-16) glob.y=bootp->ysize-16;
  280d88:	0f bf 53 06          	movswl 0x6(%ebx),%edx
  280d8c:	8d 4a f1             	lea    -0xf(%edx),%ecx
  280d8f:	3b 0d 60 2f 28 00    	cmp    0x282f60,%ecx
  280d95:	7f 09                	jg     280da0 <mouse_move+0xc1>
  280d97:	83 ea 10             	sub    $0x10,%edx
  280d9a:	89 15 60 2f 28 00    	mov    %edx,0x282f60
	display_mouse(bootp->vram,bootp->xsize,16,16,glob.x,glob.y,mousepic,16);
  280da0:	6a 10                	push   $0x10
  280da2:	68 68 2f 28 00       	push   $0x282f68
  280da7:	ff 35 60 2f 28 00    	pushl  0x282f60
  280dad:	ff 35 5c 2f 28 00    	pushl  0x282f5c
  280db3:	6a 10                	push   $0x10
  280db5:	6a 10                	push   $0x10
  280db7:	50                   	push   %eax
  280db8:	ff 73 08             	pushl  0x8(%ebx)
  280dbb:	e8 a8 f7 ff ff       	call   280568 <display_mouse>
	glob.buf[0]=glob.buf[1]=glob.buf[2]=0;
  280dc0:	83 c4 20             	add    $0x20,%esp
  280dc3:	c6 05 5a 2f 28 00 00 	movb   $0x0,0x282f5a
  280dca:	c6 05 59 2f 28 00 00 	movb   $0x0,0x282f59
  280dd1:	c6 05 58 2f 28 00 00 	movb   $0x0,0x282f58
}
  280dd8:	8d 65 f8             	lea    -0x8(%ebp),%esp
  280ddb:	5b                   	pop    %ebx
  280ddc:	5e                   	pop    %esi
  280ddd:	5d                   	pop    %ebp
  280dde:	c3                   	ret    
  280ddf:	90                   	nop

00280de0 <wait_KBC_sendready>:
#define KEYCMD_WRITE_MODE		0x60
#define KBC_MODE				0x47


void wait_KBC_sendready(void)
{
  280de0:	55                   	push   %ebp
static __inline uint8_t
inb(int port)
{
  //read a byte from port
	uint8_t data;
	__asm __volatile("inb %w1,%0" : "=a" (data) : "d" (port));
  280de1:	ba 64 00 00 00       	mov    $0x64,%edx
  280de6:	89 e5                	mov    %esp,%ebp
  280de8:	ec                   	in     (%dx),%al
	/* 僉乕儃乕僪僐儞僩儘乕儔偑僨乕僞憲怣壜擻偵側傞偺傪懸偮 */
	for (;;) {
		if ((io_in8(PORT_KEYSTA) & KEYSTA_SEND_NOTREADY) == 0) {
  280de9:	a8 02                	test   $0x2,%al
  280deb:	75 fb                	jne    280de8 <wait_KBC_sendready+0x8>
			break;
		}
	}
	return;
}
  280ded:	5d                   	pop    %ebp
  280dee:	c3                   	ret    

00280def <init_keyboard>:

void init_keyboard(void)
{
  280def:	55                   	push   %ebp
  280df0:	89 e5                	mov    %esp,%ebp
	/* 僉乕儃乕僪僐儞僩儘乕儔偺弶婜壔 */
	wait_KBC_sendready();
  280df2:	e8 e9 ff ff ff       	call   280de0 <wait_KBC_sendready>
// out:write a data to a port
static __inline void
outb(int port, uint8_t data)
{
  //data是变量0%0 , port是变量word１%w1
	__asm __volatile("outb %0,%w1" : : "a" (data), "d" (port));
  280df7:	ba 64 00 00 00       	mov    $0x64,%edx
  280dfc:	b0 60                	mov    $0x60,%al
  280dfe:	ee                   	out    %al,(%dx)
	io_out8(PORT_KEYCMD, KEYCMD_WRITE_MODE);
	wait_KBC_sendready();
  280dff:	e8 dc ff ff ff       	call   280de0 <wait_KBC_sendready>
  280e04:	ba 60 00 00 00       	mov    $0x60,%edx
  280e09:	b0 47                	mov    $0x47,%al
  280e0b:	ee                   	out    %al,(%dx)
	io_out8(PORT_KEYDAT, KBC_MODE);
	return;
}
  280e0c:	5d                   	pop    %ebp
  280e0d:	c3                   	ret    
  280e0e:	66 90                	xchg   %ax,%ax

00280e10 <memtest_sub>:
#include <header.h>
#define EFLAGS_AC_BIT		0x00040000
#define CR0_CACHE_DISABLE	0x60000000

unsigned int hehe,heihei;
unsigned int memtest_sub(unsigned int start, unsigned int end){
  280e10:	55                   	push   %ebp
  280e11:	89 e5                	mov    %esp,%ebp
  280e13:	8b 45 08             	mov    0x8(%ebp),%eax
	unsigned int i,*p,old,pat0 = 0xaa55aa55,pat1 = 0x55aa55aa;
	for (i = start;i<=end; i+=4){
  280e16:	3b 45 0c             	cmp    0xc(%ebp),%eax
  280e19:	77 21                	ja     280e3c <memtest_sub+0x2c>
		p = (unsigned int *) i;
		old = *p;
  280e1b:	8b 10                	mov    (%eax),%edx
		*p = pat0;
		*p ^= 0xffffffff;
  280e1d:	c7 00 aa 55 aa 55    	movl   $0x55aa55aa,(%eax)
		hehe = *p;
  280e23:	c7 05 6c 30 28 00 aa 	movl   $0x55aa55aa,0x28306c
  280e2a:	55 aa 55 
		if (*p != pat1){
  280e2d:	81 38 aa 55 aa 55    	cmpl   $0x55aa55aa,(%eax)
			*p = old;
  280e33:	89 10                	mov    %edx,(%eax)
		p = (unsigned int *) i;
		old = *p;
		*p = pat0;
		*p ^= 0xffffffff;
		hehe = *p;
		if (*p != pat1){
  280e35:	75 07                	jne    280e3e <memtest_sub+0x2e>
#define CR0_CACHE_DISABLE	0x60000000

unsigned int hehe,heihei;
unsigned int memtest_sub(unsigned int start, unsigned int end){
	unsigned int i,*p,old,pat0 = 0xaa55aa55,pat1 = 0x55aa55aa;
	for (i = start;i<=end; i+=4){
  280e37:	83 c0 04             	add    $0x4,%eax
  280e3a:	eb da                	jmp    280e16 <memtest_sub+0x6>
			*p = old;
			return i;
		}
		*p = old;
	}
	return 0;
  280e3c:	31 c0                	xor    %eax,%eax
}
  280e3e:	5d                   	pop    %ebp
  280e3f:	c3                   	ret    

00280e40 <memtest>:

unsigned int memtest(unsigned int start,unsigned int end){
  280e40:	55                   	push   %ebp
  280e41:	89 e5                	mov    %esp,%ebp
  280e43:	56                   	push   %esi
  280e44:	8b 75 0c             	mov    0xc(%ebp),%esi
  280e47:	53                   	push   %ebx
//read eflags and write_eflags
static __inline uint32_t
read_eflags(void)
{
        uint32_t eflags;
        __asm __volatile("pushfl; popl %0" : "=r" (eflags));
  280e48:	9c                   	pushf  
  280e49:	58                   	pop    %eax
	char flg486 = 0;
	unsigned int eflg,cr0,i;
	eflg = read_eflags();
	eflg |= EFLAGS_AC_BIT;
  280e4a:	0d 00 00 04 00       	or     $0x40000,%eax
}

static __inline void
write_eflags(uint32_t eflags)
{
        __asm __volatile("pushl %0; popfl" : : "r" (eflags));
  280e4f:	50                   	push   %eax
  280e50:	9d                   	popf   
//read eflags and write_eflags
static __inline uint32_t
read_eflags(void)
{
        uint32_t eflags;
        __asm __volatile("pushfl; popl %0" : "=r" (eflags));
  280e51:	9c                   	pushf  
  280e52:	58                   	pop    %eax
	write_eflags(eflg);
	eflg = read_eflags();
	if ((eflg & EFLAGS_AC_BIT) != 0){
  280e53:	89 c1                	mov    %eax,%ecx
		flg486 = 1;
	}
	eflg &= ~EFLAGS_AC_BIT;
  280e55:	25 ff ff fb ff       	and    $0xfffbffff,%eax
	unsigned int eflg,cr0,i;
	eflg = read_eflags();
	eflg |= EFLAGS_AC_BIT;
	write_eflags(eflg);
	eflg = read_eflags();
	if ((eflg & EFLAGS_AC_BIT) != 0){
  280e5a:	c1 e9 12             	shr    $0x12,%ecx
  280e5d:	88 cb                	mov    %cl,%bl
  280e5f:	83 e3 01             	and    $0x1,%ebx
}

static __inline void
write_eflags(uint32_t eflags)
{
        __asm __volatile("pushl %0; popfl" : : "r" (eflags));
  280e62:	50                   	push   %eax
  280e63:	9d                   	popf   
		flg486 = 1;
	}
	eflg &= ~EFLAGS_AC_BIT;
	write_eflags(eflg);
	if (flg486 != 0){
  280e64:	84 db                	test   %bl,%bl
  280e66:	74 0c                	je     280e74 <memtest+0x34>

static __inline uint32_t
rcr0(void)
{
	uint32_t val;
	__asm __volatile("movl %%cr0,%0" : "=r" (val));
  280e68:	0f 20 c2             	mov    %cr0,%edx
		cr0 = rcr0();
		cr0 |= CR0_CACHE_DISABLE;
  280e6b:	81 ca 00 00 00 60    	or     $0x60000000,%edx
}

static __inline void
lcr0(uint32_t val)
{
	__asm __volatile("movl %0,%%cr0" : : "r" (val));
  280e71:	0f 22 c2             	mov    %edx,%cr0
		lcr0(cr0);
	}

	unsigned int ret = memtest_sub(start,end);
  280e74:	56                   	push   %esi
  280e75:	ff 75 08             	pushl  0x8(%ebp)
  280e78:	e8 93 ff ff ff       	call   280e10 <memtest_sub>
	
	if (flg486 != 0){
  280e7d:	84 db                	test   %bl,%bl
  280e7f:	5a                   	pop    %edx
  280e80:	59                   	pop    %ecx
  280e81:	74 0c                	je     280e8f <memtest+0x4f>

static __inline uint32_t
rcr0(void)
{
	uint32_t val;
	__asm __volatile("movl %%cr0,%0" : "=r" (val));
  280e83:	0f 20 c2             	mov    %cr0,%edx
		cr0 = rcr0();
		cr0 &= ~CR0_CACHE_DISABLE;
  280e86:	81 e2 ff ff ff 9f    	and    $0x9fffffff,%edx
}

static __inline void
lcr0(uint32_t val)
{
	__asm __volatile("movl %0,%%cr0" : : "r" (val));
  280e8c:	0f 22 c2             	mov    %edx,%cr0
		lcr0(cr0);
	}
	if (ret==0) return end;
	else return ret -4;
  280e8f:	85 c0                	test   %eax,%eax
  280e91:	8d 50 fc             	lea    -0x4(%eax),%edx
  280e94:	89 f0                	mov    %esi,%eax
  280e96:	0f 45 c2             	cmovne %edx,%eax
}
  280e99:	8d 65 f8             	lea    -0x8(%ebp),%esp
  280e9c:	5b                   	pop    %ebx
  280e9d:	5e                   	pop    %esi
  280e9e:	5d                   	pop    %ebp
  280e9f:	c3                   	ret    
