
mem.o：     文件格式 elf32-i386


Disassembly of section .text:

00000000 <memtest_sub>:
#include <header.h>
#define EFLAGS_AC_BIT		0x00040000
#define CR0_CACHE_DISABLE	0x60000000

unsigned int hehe,heihei;
unsigned int memtest_sub(unsigned int start, unsigned int end){
   0:	55                   	push   %ebp
   1:	89 e5                	mov    %esp,%ebp
   3:	8b 45 08             	mov    0x8(%ebp),%eax
	unsigned int i,*p,old,pat0 = 0xaa55aa55,pat1 = 0x55aa55aa;
	for (i = start;i<=end; i+=4){
   6:	3b 45 0c             	cmp    0xc(%ebp),%eax
   9:	77 21                	ja     2c <memtest_sub+0x2c>
		p = (unsigned int *) i;
		old = *p;
   b:	8b 10                	mov    (%eax),%edx
		*p = pat0;
		*p ^= 0xffffffff;
   d:	c7 00 aa 55 aa 55    	movl   $0x55aa55aa,(%eax)
		hehe = *p;
  13:	c7 05 00 00 00 00 aa 	movl   $0x55aa55aa,0x0
  1a:	55 aa 55 
		if (*p != pat1){
  1d:	81 38 aa 55 aa 55    	cmpl   $0x55aa55aa,(%eax)
			*p = old;
  23:	89 10                	mov    %edx,(%eax)
		p = (unsigned int *) i;
		old = *p;
		*p = pat0;
		*p ^= 0xffffffff;
		hehe = *p;
		if (*p != pat1){
  25:	75 07                	jne    2e <memtest_sub+0x2e>
#define CR0_CACHE_DISABLE	0x60000000

unsigned int hehe,heihei;
unsigned int memtest_sub(unsigned int start, unsigned int end){
	unsigned int i,*p,old,pat0 = 0xaa55aa55,pat1 = 0x55aa55aa;
	for (i = start;i<=end; i+=4){
  27:	83 c0 04             	add    $0x4,%eax
  2a:	eb da                	jmp    6 <memtest_sub+0x6>
			*p = old;
			return i;
		}
		*p = old;
	}
	return 0;
  2c:	31 c0                	xor    %eax,%eax
}
  2e:	5d                   	pop    %ebp
  2f:	c3                   	ret    

00000030 <memtest>:

unsigned int memtest(unsigned int start,unsigned int end){
  30:	55                   	push   %ebp
  31:	89 e5                	mov    %esp,%ebp
  33:	56                   	push   %esi
  34:	8b 75 0c             	mov    0xc(%ebp),%esi
  37:	53                   	push   %ebx
//read eflags and write_eflags
static __inline uint32_t
read_eflags(void)
{
        uint32_t eflags;
        __asm __volatile("pushfl; popl %0" : "=r" (eflags));
  38:	9c                   	pushf  
  39:	58                   	pop    %eax
	char flg486 = 0;
	unsigned int eflg,cr0,i;
	eflg = read_eflags();
	eflg |= EFLAGS_AC_BIT;
  3a:	0d 00 00 04 00       	or     $0x40000,%eax
}

static __inline void
write_eflags(uint32_t eflags)
{
        __asm __volatile("pushl %0; popfl" : : "r" (eflags));
  3f:	50                   	push   %eax
  40:	9d                   	popf   
//read eflags and write_eflags
static __inline uint32_t
read_eflags(void)
{
        uint32_t eflags;
        __asm __volatile("pushfl; popl %0" : "=r" (eflags));
  41:	9c                   	pushf  
  42:	58                   	pop    %eax
	write_eflags(eflg);
	eflg = read_eflags();
	if ((eflg & EFLAGS_AC_BIT) != 0){
  43:	89 c1                	mov    %eax,%ecx
		flg486 = 1;
	}
	eflg &= ~EFLAGS_AC_BIT;
  45:	25 ff ff fb ff       	and    $0xfffbffff,%eax
	unsigned int eflg,cr0,i;
	eflg = read_eflags();
	eflg |= EFLAGS_AC_BIT;
	write_eflags(eflg);
	eflg = read_eflags();
	if ((eflg & EFLAGS_AC_BIT) != 0){
  4a:	c1 e9 12             	shr    $0x12,%ecx
  4d:	88 cb                	mov    %cl,%bl
  4f:	83 e3 01             	and    $0x1,%ebx
}

static __inline void
write_eflags(uint32_t eflags)
{
        __asm __volatile("pushl %0; popfl" : : "r" (eflags));
  52:	50                   	push   %eax
  53:	9d                   	popf   
		flg486 = 1;
	}
	eflg &= ~EFLAGS_AC_BIT;
	write_eflags(eflg);
	if (flg486 != 0){
  54:	84 db                	test   %bl,%bl
  56:	74 0c                	je     64 <memtest+0x34>

static __inline uint32_t
rcr0(void)
{
	uint32_t val;
	__asm __volatile("movl %%cr0,%0" : "=r" (val));
  58:	0f 20 c2             	mov    %cr0,%edx
		cr0 = rcr0();
		cr0 |= CR0_CACHE_DISABLE;
  5b:	81 ca 00 00 00 60    	or     $0x60000000,%edx
}

static __inline void
lcr0(uint32_t val)
{
	__asm __volatile("movl %0,%%cr0" : : "r" (val));
  61:	0f 22 c2             	mov    %edx,%cr0
		lcr0(cr0);
	}

	unsigned int ret = memtest_sub(start,end);
  64:	56                   	push   %esi
  65:	ff 75 08             	pushl  0x8(%ebp)
  68:	e8 fc ff ff ff       	call   69 <memtest+0x39>
	
	if (flg486 != 0){
  6d:	84 db                	test   %bl,%bl
  6f:	5a                   	pop    %edx
  70:	59                   	pop    %ecx
  71:	74 0c                	je     7f <memtest+0x4f>

static __inline uint32_t
rcr0(void)
{
	uint32_t val;
	__asm __volatile("movl %%cr0,%0" : "=r" (val));
  73:	0f 20 c2             	mov    %cr0,%edx
		cr0 = rcr0();
		cr0 &= CR0_CACHE_DISABLE;
  76:	81 e2 00 00 00 60    	and    $0x60000000,%edx
}

static __inline void
lcr0(uint32_t val)
{
	__asm __volatile("movl %0,%%cr0" : : "r" (val));
  7c:	0f 22 c2             	mov    %edx,%cr0
		lcr0(cr0);
	}
	if (ret==0) return end;
	else return ret -4;
  7f:	85 c0                	test   %eax,%eax
  81:	8d 50 fc             	lea    -0x4(%eax),%edx
  84:	89 f0                	mov    %esi,%eax
  86:	0f 45 c2             	cmovne %edx,%eax
}
  89:	8d 65 f8             	lea    -0x8(%ebp),%esp
  8c:	5b                   	pop    %ebx
  8d:	5e                   	pop    %esi
  8e:	5d                   	pop    %ebp
  8f:	c3                   	ret    
